

Microchip Technology PIC LITE Macro Assembler V2.00 build -1524193055 
                                                                                               Wed Jun 16 16:30:43 2021

Microchip Technology Omniscient Code Generator v2.00 (Free mode) build 20180527130849
     1  0000                     
      + 0000                     
     2                           ; Version 2.00
     3                           ; Generated 27/05/2018 GMT
     4                           
     5                           ; 
     6                           ; Copyright © 2018, Microchip Technology Inc. and its subsidiaries ("Microchip")
     7                           ; All rights reserved.
     8                           ; 
     9                           ; This software is developed by Microchip Technology Inc. and its subsidiaries ("Microch
                                 ip").
    10                           ; 
    11                           ; Redistribution and use in source and binary forms, with or without modification, are
    12                           ; permitted provided that the following conditions are met:
    13                           ; 
    14                           ;     1. Redistributions of source code must retain the above copyright notice, this lis
                                 t of
    15                           ;        conditions and the following disclaimer.
    16                           ; 
    17                           ;     2. Redistributions in binary form must reproduce the above copyright notice, this 
                                 list
    18                           ;        of conditions and the following disclaimer in the documentation and/or other
    19                           ;        materials provided with the distribution.
    20                           ; 
    21                           ;     3. Microchip's name may not be used to endorse or promote products derived from th
                                 is
    22                           ;        software without specific prior written permission.
    23                           ; 
    24                           ; THIS SOFTWARE IS PROVIDED BY MICROCHIP "AS IS" AND ANY EXPRESS OR IMPLIED WARRANTIES,

    25                           ; INCLUDING, BUT NOT LIMITED TO, THE IMPLIED WARRANTIES OF MERCHANTABILITY AND FITNESS F
                                 OR
    26                           ; PURPOSE ARE DISCLAIMED.  IN NO EVENT SHALL MICROCHIP BE LIABLE FOR ANY DIRECT, INDIREC
                                 T,
    27                           ; INCIDENTAL, SPECIAL, EXEMPLARY, OR CONSEQUENTIAL DAMAGES (INCLUDING BUT NOT LIMITED TO
                                 
    28                           ; PROCUREMENT OF SUBSTITUTE GOODS OR SERVICES; LOSS OF USE, DATA OR PROFITS; OR BUSINESS
                                 
    29                           ; INTERRUPTION) HOWSOEVER CAUSED AND ON ANY THEORY OF LIABILITY, WHETHER IN CONTRACT, ST
                                 RICT
    30                           ; LIABILITY, OR TORT (INCLUDING NEGLIGENCE OR OTHERWISE) ARISING IN ANY WAY OUT OF THE U
                                 SE OF
    31                           ; THIS SOFTWARE, EVEN IF ADVISED OF THE POSSIBILITY OF SUCH DAMAGE.
    32                           ; 
    33                           
    34                           
    35                           ; 
    36                           ; Code-generator required, PIC16F887 Definitions
    37                           ; 
    38  0004                     fsr0 equ 04h
    39  0004                     indf equ 00h
    40  0000                     indf0 equ 00h
    41  0000                     pc equ 02h
    42  0002                     pcl equ 02h
    43  0002                     pclath equ 0Ah
    44  000A                     status equ 03h
    45  0003                     
     2                           opt pagewidth 120
     3  0000                     byte0	macro	val
     4                           	(getbyte(val,0))
     5                           endm
     6  0000                     byte1	macro	val
     7                           	(getbyte(val,1))
     8                           endm
     9  0000                     byte2	macro	val
    10                           	(getbyte(val,2))
    11                           endm
    12  0000                     byte3	macro	val
    13                           	(getbyte(val,3))
    14                           endm
    15  0000                     byte4	macro	val
    16                           	(getbyte(val,4))
    17                           endm
    18  0000                     byte5	macro	val
    19                           	(getbyte(val,5))
    20                           endm
    21  0000                     byte6	macro	val
    22                           	(getbyte(val,6))
    23                           endm
    24  0000                     byte7	macro	val
    25                           	(getbyte(val,7))
    26                           endm
    27  0000                     getword	macro	val,pos
    28                           	(((val) >> (8 * pos)) and 0xffff)
    29                           endm
    30  0000                     word0	macro	val
    31                           	(getword(val,0))
    32                           endm
    33  0000                     word1	macro	val
    34                           	(getword(val,2))
    35                           endm
    36  0000                     word2	macro	val
    37                           	(getword(val,4))
    38                           endm
    39  0000                     word3	macro	val
    40                           	(getword(val,6))
    41                           endm
    42  0000                     gettword	macro	val,pos
    43                           	(((val) >> (8 * pos)) and 0xffffff)
    44                           endm
    45  0000                     tword0	macro	val
    46                           	(gettword(val,0))
    47                           endm
    48  0000                     tword1	macro	val
    49                           	(gettword(val,3))
    50                           endm
    51  0000                     tword2	macro	val
    52                           	(gettword(val,6))
    53                           endm
    54  0000                     getdword	macro	val,pos
    55                           	(((val) >> (8 * pos)) and 0xffffffff)
    56                           endm
    57  0000                     dword0	macro	val
    58                           	(getdword(val,0))
    59                           endm
    60  0000                     dword1	macro	val
    61                           	(getdword(val,4))
    62                           endm
    63  0000                     clrc	macro
    64                           	bcf	3,0
    65                           	endm
    66  0000                     clrz	macro
    67                           	bcf	3,2
    68                           	endm
    69  0000                     setc	macro
    70                           	bsf	3,0
    71                           	endm
    72  0000                     setz	macro
    73                           	bsf	3,2
    74                           	endm
    75  0000                     skipc	macro
    76                           	btfss	3,0
    77                           	endm
    78  0000                     skipz	macro
    79                           	btfss	3,2
    80                           	endm
    81  0000                     skipnc	macro
    82                           	btfsc	3,0
    83                           	endm
    84  0000                     skipnz	macro
    85                           	btfsc	3,2
    86                           	endm
    87  0000                     # 54 "C:\Program Files (x86)\Microchip\xc8\v2.00\pic\include\pic16f887.h"
    88                           INDF equ 00h ;# 
    89  0000                     # 61 "C:\Program Files (x86)\Microchip\xc8\v2.00\pic\include\pic16f887.h"
    90                           TMR0 equ 01h ;# 
    91  0001                     # 68 "C:\Program Files (x86)\Microchip\xc8\v2.00\pic\include\pic16f887.h"
    92                           PCL equ 02h ;# 
    93  0002                     # 75 "C:\Program Files (x86)\Microchip\xc8\v2.00\pic\include\pic16f887.h"
    94                           STATUS equ 03h ;# 
    95  0003                     # 161 "C:\Program Files (x86)\Microchip\xc8\v2.00\pic\include\pic16f887.h"
    96                           FSR equ 04h ;# 
    97  0004                     # 168 "C:\Program Files (x86)\Microchip\xc8\v2.00\pic\include\pic16f887.h"
    98                           PORTA equ 05h ;# 
    99  0005                     # 230 "C:\Program Files (x86)\Microchip\xc8\v2.00\pic\include\pic16f887.h"
   100                           PORTB equ 06h ;# 
   101  0006                     # 292 "C:\Program Files (x86)\Microchip\xc8\v2.00\pic\include\pic16f887.h"
   102                           PORTC equ 07h ;# 
   103  0007                     # 354 "C:\Program Files (x86)\Microchip\xc8\v2.00\pic\include\pic16f887.h"
   104                           PORTD equ 08h ;# 
   105  0008                     # 416 "C:\Program Files (x86)\Microchip\xc8\v2.00\pic\include\pic16f887.h"
   106                           PORTE equ 09h ;# 
   107  0009                     # 454 "C:\Program Files (x86)\Microchip\xc8\v2.00\pic\include\pic16f887.h"
   108                           PCLATH equ 0Ah ;# 
   109  000A                     # 461 "C:\Program Files (x86)\Microchip\xc8\v2.00\pic\include\pic16f887.h"
   110                           INTCON equ 0Bh ;# 
   111  000B                     # 539 "C:\Program Files (x86)\Microchip\xc8\v2.00\pic\include\pic16f887.h"
   112                           PIR1 equ 0Ch ;# 
   113  000C                     # 595 "C:\Program Files (x86)\Microchip\xc8\v2.00\pic\include\pic16f887.h"
   114                           PIR2 equ 0Dh ;# 
   115  000D                     # 652 "C:\Program Files (x86)\Microchip\xc8\v2.00\pic\include\pic16f887.h"
   116                           TMR1 equ 0Eh ;# 
   117  000E                     # 659 "C:\Program Files (x86)\Microchip\xc8\v2.00\pic\include\pic16f887.h"
   118                           TMR1L equ 0Eh ;# 
   119  000E                     # 666 "C:\Program Files (x86)\Microchip\xc8\v2.00\pic\include\pic16f887.h"
   120                           TMR1H equ 0Fh ;# 
   121  000F                     # 673 "C:\Program Files (x86)\Microchip\xc8\v2.00\pic\include\pic16f887.h"
   122                           T1CON equ 010h ;# 
   123  0010                     # 767 "C:\Program Files (x86)\Microchip\xc8\v2.00\pic\include\pic16f887.h"
   124                           TMR2 equ 011h ;# 
   125  0011                     # 774 "C:\Program Files (x86)\Microchip\xc8\v2.00\pic\include\pic16f887.h"
   126                           T2CON equ 012h ;# 
   127  0012                     # 845 "C:\Program Files (x86)\Microchip\xc8\v2.00\pic\include\pic16f887.h"
   128                           SSPBUF equ 013h ;# 
   129  0013                     # 852 "C:\Program Files (x86)\Microchip\xc8\v2.00\pic\include\pic16f887.h"
   130                           SSPCON equ 014h ;# 
   131  0014                     # 922 "C:\Program Files (x86)\Microchip\xc8\v2.00\pic\include\pic16f887.h"
   132                           CCPR1 equ 015h ;# 
   133  0015                     # 929 "C:\Program Files (x86)\Microchip\xc8\v2.00\pic\include\pic16f887.h"
   134                           CCPR1L equ 015h ;# 
   135  0015                     # 936 "C:\Program Files (x86)\Microchip\xc8\v2.00\pic\include\pic16f887.h"
   136                           CCPR1H equ 016h ;# 
   137  0016                     # 943 "C:\Program Files (x86)\Microchip\xc8\v2.00\pic\include\pic16f887.h"
   138                           CCP1CON equ 017h ;# 
   139  0017                     # 1040 "C:\Program Files (x86)\Microchip\xc8\v2.00\pic\include\pic16f887.h"
   140                           RCSTA equ 018h ;# 
   141  0018                     # 1135 "C:\Program Files (x86)\Microchip\xc8\v2.00\pic\include\pic16f887.h"
   142                           TXREG equ 019h ;# 
   143  0019                     # 1142 "C:\Program Files (x86)\Microchip\xc8\v2.00\pic\include\pic16f887.h"
   144                           RCREG equ 01Ah ;# 
   145  001A                     # 1149 "C:\Program Files (x86)\Microchip\xc8\v2.00\pic\include\pic16f887.h"
   146                           CCPR2 equ 01Bh ;# 
   147  001B                     # 1156 "C:\Program Files (x86)\Microchip\xc8\v2.00\pic\include\pic16f887.h"
   148                           CCPR2L equ 01Bh ;# 
   149  001B                     # 1163 "C:\Program Files (x86)\Microchip\xc8\v2.00\pic\include\pic16f887.h"
   150                           CCPR2H equ 01Ch ;# 
   151  001C                     # 1170 "C:\Program Files (x86)\Microchip\xc8\v2.00\pic\include\pic16f887.h"
   152                           CCP2CON equ 01Dh ;# 
   153  001D                     # 1240 "C:\Program Files (x86)\Microchip\xc8\v2.00\pic\include\pic16f887.h"
   154                           ADRESH equ 01Eh ;# 
   155  001E                     # 1247 "C:\Program Files (x86)\Microchip\xc8\v2.00\pic\include\pic16f887.h"
   156                           ADCON0 equ 01Fh ;# 
   157  001F                     # 1348 "C:\Program Files (x86)\Microchip\xc8\v2.00\pic\include\pic16f887.h"
   158                           OPTION_REG equ 081h ;# 
   159  0081                     # 1418 "C:\Program Files (x86)\Microchip\xc8\v2.00\pic\include\pic16f887.h"
   160                           TRISA equ 085h ;# 
   161  0085                     # 1480 "C:\Program Files (x86)\Microchip\xc8\v2.00\pic\include\pic16f887.h"
   162                           TRISB equ 086h ;# 
   163  0086                     # 1542 "C:\Program Files (x86)\Microchip\xc8\v2.00\pic\include\pic16f887.h"
   164                           TRISC equ 087h ;# 
   165  0087                     # 1604 "C:\Program Files (x86)\Microchip\xc8\v2.00\pic\include\pic16f887.h"
   166                           TRISD equ 088h ;# 
   167  0088                     # 1666 "C:\Program Files (x86)\Microchip\xc8\v2.00\pic\include\pic16f887.h"
   168                           TRISE equ 089h ;# 
   169  0089                     # 1704 "C:\Program Files (x86)\Microchip\xc8\v2.00\pic\include\pic16f887.h"
   170                           PIE1 equ 08Ch ;# 
   171  008C                     # 1760 "C:\Program Files (x86)\Microchip\xc8\v2.00\pic\include\pic16f887.h"
   172                           PIE2 equ 08Dh ;# 
   173  008D                     # 1817 "C:\Program Files (x86)\Microchip\xc8\v2.00\pic\include\pic16f887.h"
   174                           PCON equ 08Eh ;# 
   175  008E                     # 1864 "C:\Program Files (x86)\Microchip\xc8\v2.00\pic\include\pic16f887.h"
   176                           OSCCON equ 08Fh ;# 
   177  008F                     # 1929 "C:\Program Files (x86)\Microchip\xc8\v2.00\pic\include\pic16f887.h"
   178                           OSCTUNE equ 090h ;# 
   179  0090                     # 1981 "C:\Program Files (x86)\Microchip\xc8\v2.00\pic\include\pic16f887.h"
   180                           SSPCON2 equ 091h ;# 
   181  0091                     # 2043 "C:\Program Files (x86)\Microchip\xc8\v2.00\pic\include\pic16f887.h"
   182                           PR2 equ 092h ;# 
   183  0092                     # 2050 "C:\Program Files (x86)\Microchip\xc8\v2.00\pic\include\pic16f887.h"
   184                           SSPADD equ 093h ;# 
   185  0093                     # 2057 "C:\Program Files (x86)\Microchip\xc8\v2.00\pic\include\pic16f887.h"
   186                           SSPMSK equ 093h ;# 
   187  0093                     # 2062 "C:\Program Files (x86)\Microchip\xc8\v2.00\pic\include\pic16f887.h"
   188                           MSK equ 093h ;# 
   189  0093                     # 2179 "C:\Program Files (x86)\Microchip\xc8\v2.00\pic\include\pic16f887.h"
   190                           SSPSTAT equ 094h ;# 
   191  0094                     # 2348 "C:\Program Files (x86)\Microchip\xc8\v2.00\pic\include\pic16f887.h"
   192                           WPUB equ 095h ;# 
   193  0095                     # 2418 "C:\Program Files (x86)\Microchip\xc8\v2.00\pic\include\pic16f887.h"
   194                           IOCB equ 096h ;# 
   195  0096                     # 2488 "C:\Program Files (x86)\Microchip\xc8\v2.00\pic\include\pic16f887.h"
   196                           VRCON equ 097h ;# 
   197  0097                     # 2558 "C:\Program Files (x86)\Microchip\xc8\v2.00\pic\include\pic16f887.h"
   198                           TXSTA equ 098h ;# 
   199  0098                     # 2644 "C:\Program Files (x86)\Microchip\xc8\v2.00\pic\include\pic16f887.h"
   200                           SPBRG equ 099h ;# 
   201  0099                     # 2706 "C:\Program Files (x86)\Microchip\xc8\v2.00\pic\include\pic16f887.h"
   202                           SPBRGH equ 09Ah ;# 
   203  009A                     # 2776 "C:\Program Files (x86)\Microchip\xc8\v2.00\pic\include\pic16f887.h"
   204                           PWM1CON equ 09Bh ;# 
   205  009B                     # 2846 "C:\Program Files (x86)\Microchip\xc8\v2.00\pic\include\pic16f887.h"
   206                           ECCPAS equ 09Ch ;# 
   207  009C                     # 2928 "C:\Program Files (x86)\Microchip\xc8\v2.00\pic\include\pic16f887.h"
   208                           PSTRCON equ 09Dh ;# 
   209  009D                     # 2972 "C:\Program Files (x86)\Microchip\xc8\v2.00\pic\include\pic16f887.h"
   210                           ADRESL equ 09Eh ;# 
   211  009E                     # 2979 "C:\Program Files (x86)\Microchip\xc8\v2.00\pic\include\pic16f887.h"
   212                           ADCON1 equ 09Fh ;# 
   213  009F                     # 3013 "C:\Program Files (x86)\Microchip\xc8\v2.00\pic\include\pic16f887.h"
   214                           WDTCON equ 0105h ;# 
   215  0105                     # 3066 "C:\Program Files (x86)\Microchip\xc8\v2.00\pic\include\pic16f887.h"
   216                           CM1CON0 equ 0107h ;# 
   217  0107                     # 3131 "C:\Program Files (x86)\Microchip\xc8\v2.00\pic\include\pic16f887.h"
   218                           CM2CON0 equ 0108h ;# 
   219  0108                     # 3196 "C:\Program Files (x86)\Microchip\xc8\v2.00\pic\include\pic16f887.h"
   220                           CM2CON1 equ 0109h ;# 
   221  0109                     # 3247 "C:\Program Files (x86)\Microchip\xc8\v2.00\pic\include\pic16f887.h"
   222                           EEDATA equ 010Ch ;# 
   223  010C                     # 3252 "C:\Program Files (x86)\Microchip\xc8\v2.00\pic\include\pic16f887.h"
   224                           EEDAT equ 010Ch ;# 
   225  010C                     # 3259 "C:\Program Files (x86)\Microchip\xc8\v2.00\pic\include\pic16f887.h"
   226                           EEADR equ 010Dh ;# 
   227  010D                     # 3266 "C:\Program Files (x86)\Microchip\xc8\v2.00\pic\include\pic16f887.h"
   228                           EEDATH equ 010Eh ;# 
   229  010E                     # 3273 "C:\Program Files (x86)\Microchip\xc8\v2.00\pic\include\pic16f887.h"
   230                           EEADRH equ 010Fh ;# 
   231  010F                     # 3280 "C:\Program Files (x86)\Microchip\xc8\v2.00\pic\include\pic16f887.h"
   232                           SRCON equ 0185h ;# 
   233  0185                     # 3337 "C:\Program Files (x86)\Microchip\xc8\v2.00\pic\include\pic16f887.h"
   234                           BAUDCTL equ 0187h ;# 
   235  0187                     # 3389 "C:\Program Files (x86)\Microchip\xc8\v2.00\pic\include\pic16f887.h"
   236                           ANSEL equ 0188h ;# 
   237  0188                     # 3451 "C:\Program Files (x86)\Microchip\xc8\v2.00\pic\include\pic16f887.h"
   238                           ANSELH equ 0189h ;# 
   239  0189                     # 3501 "C:\Program Files (x86)\Microchip\xc8\v2.00\pic\include\pic16f887.h"
   240                           EECON1 equ 018Ch ;# 
   241  018C                     # 3546 "C:\Program Files (x86)\Microchip\xc8\v2.00\pic\include\pic16f887.h"
   242                           EECON2 equ 018Dh ;# 
   243  018D                     # 54 "C:\Program Files (x86)\Microchip\xc8\v2.00\pic\include\pic16f887.h"
   244                           INDF equ 00h ;# 
   245  0000                     # 61 "C:\Program Files (x86)\Microchip\xc8\v2.00\pic\include\pic16f887.h"
   246                           TMR0 equ 01h ;# 
   247  0001                     # 68 "C:\Program Files (x86)\Microchip\xc8\v2.00\pic\include\pic16f887.h"
   248                           PCL equ 02h ;# 
   249  0002                     # 75 "C:\Program Files (x86)\Microchip\xc8\v2.00\pic\include\pic16f887.h"
   250                           STATUS equ 03h ;# 
   251  0003                     # 161 "C:\Program Files (x86)\Microchip\xc8\v2.00\pic\include\pic16f887.h"
   252                           FSR equ 04h ;# 
   253  0004                     # 168 "C:\Program Files (x86)\Microchip\xc8\v2.00\pic\include\pic16f887.h"
   254                           PORTA equ 05h ;# 
   255  0005                     # 230 "C:\Program Files (x86)\Microchip\xc8\v2.00\pic\include\pic16f887.h"
   256                           PORTB equ 06h ;# 
   257  0006                     # 292 "C:\Program Files (x86)\Microchip\xc8\v2.00\pic\include\pic16f887.h"
   258                           PORTC equ 07h ;# 
   259  0007                     # 354 "C:\Program Files (x86)\Microchip\xc8\v2.00\pic\include\pic16f887.h"
   260                           PORTD equ 08h ;# 
   261  0008                     # 416 "C:\Program Files (x86)\Microchip\xc8\v2.00\pic\include\pic16f887.h"
   262                           PORTE equ 09h ;# 
   263  0009                     # 454 "C:\Program Files (x86)\Microchip\xc8\v2.00\pic\include\pic16f887.h"
   264                           PCLATH equ 0Ah ;# 
   265  000A                     # 461 "C:\Program Files (x86)\Microchip\xc8\v2.00\pic\include\pic16f887.h"
   266                           INTCON equ 0Bh ;# 
   267  000B                     # 539 "C:\Program Files (x86)\Microchip\xc8\v2.00\pic\include\pic16f887.h"
   268                           PIR1 equ 0Ch ;# 
   269  000C                     # 595 "C:\Program Files (x86)\Microchip\xc8\v2.00\pic\include\pic16f887.h"
   270                           PIR2 equ 0Dh ;# 
   271  000D                     # 652 "C:\Program Files (x86)\Microchip\xc8\v2.00\pic\include\pic16f887.h"
   272                           TMR1 equ 0Eh ;# 
   273  000E                     # 659 "C:\Program Files (x86)\Microchip\xc8\v2.00\pic\include\pic16f887.h"
   274                           TMR1L equ 0Eh ;# 
   275  000E                     # 666 "C:\Program Files (x86)\Microchip\xc8\v2.00\pic\include\pic16f887.h"
   276                           TMR1H equ 0Fh ;# 
   277  000F                     # 673 "C:\Program Files (x86)\Microchip\xc8\v2.00\pic\include\pic16f887.h"
   278                           T1CON equ 010h ;# 
   279  0010                     # 767 "C:\Program Files (x86)\Microchip\xc8\v2.00\pic\include\pic16f887.h"
   280                           TMR2 equ 011h ;# 
   281  0011                     # 774 "C:\Program Files (x86)\Microchip\xc8\v2.00\pic\include\pic16f887.h"
   282                           T2CON equ 012h ;# 
   283  0012                     # 845 "C:\Program Files (x86)\Microchip\xc8\v2.00\pic\include\pic16f887.h"
   284                           SSPBUF equ 013h ;# 
   285  0013                     # 852 "C:\Program Files (x86)\Microchip\xc8\v2.00\pic\include\pic16f887.h"
   286                           SSPCON equ 014h ;# 
   287  0014                     # 922 "C:\Program Files (x86)\Microchip\xc8\v2.00\pic\include\pic16f887.h"
   288                           CCPR1 equ 015h ;# 
   289  0015                     # 929 "C:\Program Files (x86)\Microchip\xc8\v2.00\pic\include\pic16f887.h"
   290                           CCPR1L equ 015h ;# 
   291  0015                     # 936 "C:\Program Files (x86)\Microchip\xc8\v2.00\pic\include\pic16f887.h"
   292                           CCPR1H equ 016h ;# 
   293  0016                     # 943 "C:\Program Files (x86)\Microchip\xc8\v2.00\pic\include\pic16f887.h"
   294                           CCP1CON equ 017h ;# 
   295  0017                     # 1040 "C:\Program Files (x86)\Microchip\xc8\v2.00\pic\include\pic16f887.h"
   296                           RCSTA equ 018h ;# 
   297  0018                     # 1135 "C:\Program Files (x86)\Microchip\xc8\v2.00\pic\include\pic16f887.h"
   298                           TXREG equ 019h ;# 
   299  0019                     # 1142 "C:\Program Files (x86)\Microchip\xc8\v2.00\pic\include\pic16f887.h"
   300                           RCREG equ 01Ah ;# 
   301  001A                     # 1149 "C:\Program Files (x86)\Microchip\xc8\v2.00\pic\include\pic16f887.h"
   302                           CCPR2 equ 01Bh ;# 
   303  001B                     # 1156 "C:\Program Files (x86)\Microchip\xc8\v2.00\pic\include\pic16f887.h"
   304                           CCPR2L equ 01Bh ;# 
   305  001B                     # 1163 "C:\Program Files (x86)\Microchip\xc8\v2.00\pic\include\pic16f887.h"
   306                           CCPR2H equ 01Ch ;# 
   307  001C                     # 1170 "C:\Program Files (x86)\Microchip\xc8\v2.00\pic\include\pic16f887.h"
   308                           CCP2CON equ 01Dh ;# 
   309  001D                     # 1240 "C:\Program Files (x86)\Microchip\xc8\v2.00\pic\include\pic16f887.h"
   310                           ADRESH equ 01Eh ;# 
   311  001E                     # 1247 "C:\Program Files (x86)\Microchip\xc8\v2.00\pic\include\pic16f887.h"
   312                           ADCON0 equ 01Fh ;# 
   313  001F                     # 1348 "C:\Program Files (x86)\Microchip\xc8\v2.00\pic\include\pic16f887.h"
   314                           OPTION_REG equ 081h ;# 
   315  0081                     # 1418 "C:\Program Files (x86)\Microchip\xc8\v2.00\pic\include\pic16f887.h"
   316                           TRISA equ 085h ;# 
   317  0085                     # 1480 "C:\Program Files (x86)\Microchip\xc8\v2.00\pic\include\pic16f887.h"
   318                           TRISB equ 086h ;# 
   319  0086                     # 1542 "C:\Program Files (x86)\Microchip\xc8\v2.00\pic\include\pic16f887.h"
   320                           TRISC equ 087h ;# 
   321  0087                     # 1604 "C:\Program Files (x86)\Microchip\xc8\v2.00\pic\include\pic16f887.h"
   322                           TRISD equ 088h ;# 
   323  0088                     # 1666 "C:\Program Files (x86)\Microchip\xc8\v2.00\pic\include\pic16f887.h"
   324                           TRISE equ 089h ;# 
   325  0089                     # 1704 "C:\Program Files (x86)\Microchip\xc8\v2.00\pic\include\pic16f887.h"
   326                           PIE1 equ 08Ch ;# 
   327  008C                     # 1760 "C:\Program Files (x86)\Microchip\xc8\v2.00\pic\include\pic16f887.h"
   328                           PIE2 equ 08Dh ;# 
   329  008D                     # 1817 "C:\Program Files (x86)\Microchip\xc8\v2.00\pic\include\pic16f887.h"
   330                           PCON equ 08Eh ;# 
   331  008E                     # 1864 "C:\Program Files (x86)\Microchip\xc8\v2.00\pic\include\pic16f887.h"
   332                           OSCCON equ 08Fh ;# 
   333  008F                     # 1929 "C:\Program Files (x86)\Microchip\xc8\v2.00\pic\include\pic16f887.h"
   334                           OSCTUNE equ 090h ;# 
   335  0090                     # 1981 "C:\Program Files (x86)\Microchip\xc8\v2.00\pic\include\pic16f887.h"
   336                           SSPCON2 equ 091h ;# 
   337  0091                     # 2043 "C:\Program Files (x86)\Microchip\xc8\v2.00\pic\include\pic16f887.h"
   338                           PR2 equ 092h ;# 
   339  0092                     # 2050 "C:\Program Files (x86)\Microchip\xc8\v2.00\pic\include\pic16f887.h"
   340                           SSPADD equ 093h ;# 
   341  0093                     # 2057 "C:\Program Files (x86)\Microchip\xc8\v2.00\pic\include\pic16f887.h"
   342                           SSPMSK equ 093h ;# 
   343  0093                     # 2062 "C:\Program Files (x86)\Microchip\xc8\v2.00\pic\include\pic16f887.h"
   344                           MSK equ 093h ;# 
   345  0093                     # 2179 "C:\Program Files (x86)\Microchip\xc8\v2.00\pic\include\pic16f887.h"
   346                           SSPSTAT equ 094h ;# 
   347  0094                     # 2348 "C:\Program Files (x86)\Microchip\xc8\v2.00\pic\include\pic16f887.h"
   348                           WPUB equ 095h ;# 
   349  0095                     # 2418 "C:\Program Files (x86)\Microchip\xc8\v2.00\pic\include\pic16f887.h"
   350                           IOCB equ 096h ;# 
   351  0096                     # 2488 "C:\Program Files (x86)\Microchip\xc8\v2.00\pic\include\pic16f887.h"
   352                           VRCON equ 097h ;# 
   353  0097                     # 2558 "C:\Program Files (x86)\Microchip\xc8\v2.00\pic\include\pic16f887.h"
   354                           TXSTA equ 098h ;# 
   355  0098                     # 2644 "C:\Program Files (x86)\Microchip\xc8\v2.00\pic\include\pic16f887.h"
   356                           SPBRG equ 099h ;# 
   357  0099                     # 2706 "C:\Program Files (x86)\Microchip\xc8\v2.00\pic\include\pic16f887.h"
   358                           SPBRGH equ 09Ah ;# 
   359  009A                     # 2776 "C:\Program Files (x86)\Microchip\xc8\v2.00\pic\include\pic16f887.h"
   360                           PWM1CON equ 09Bh ;# 
   361  009B                     # 2846 "C:\Program Files (x86)\Microchip\xc8\v2.00\pic\include\pic16f887.h"
   362                           ECCPAS equ 09Ch ;# 
   363  009C                     # 2928 "C:\Program Files (x86)\Microchip\xc8\v2.00\pic\include\pic16f887.h"
   364                           PSTRCON equ 09Dh ;# 
   365  009D                     # 2972 "C:\Program Files (x86)\Microchip\xc8\v2.00\pic\include\pic16f887.h"
   366                           ADRESL equ 09Eh ;# 
   367  009E                     # 2979 "C:\Program Files (x86)\Microchip\xc8\v2.00\pic\include\pic16f887.h"
   368                           ADCON1 equ 09Fh ;# 
   369  009F                     # 3013 "C:\Program Files (x86)\Microchip\xc8\v2.00\pic\include\pic16f887.h"
   370                           WDTCON equ 0105h ;# 
   371  0105                     # 3066 "C:\Program Files (x86)\Microchip\xc8\v2.00\pic\include\pic16f887.h"
   372                           CM1CON0 equ 0107h ;# 
   373  0107                     # 3131 "C:\Program Files (x86)\Microchip\xc8\v2.00\pic\include\pic16f887.h"
   374                           CM2CON0 equ 0108h ;# 
   375  0108                     # 3196 "C:\Program Files (x86)\Microchip\xc8\v2.00\pic\include\pic16f887.h"
   376                           CM2CON1 equ 0109h ;# 
   377  0109                     # 3247 "C:\Program Files (x86)\Microchip\xc8\v2.00\pic\include\pic16f887.h"
   378                           EEDATA equ 010Ch ;# 
   379  010C                     # 3252 "C:\Program Files (x86)\Microchip\xc8\v2.00\pic\include\pic16f887.h"
   380                           EEDAT equ 010Ch ;# 
   381  010C                     # 3259 "C:\Program Files (x86)\Microchip\xc8\v2.00\pic\include\pic16f887.h"
   382                           EEADR equ 010Dh ;# 
   383  010D                     # 3266 "C:\Program Files (x86)\Microchip\xc8\v2.00\pic\include\pic16f887.h"
   384                           EEDATH equ 010Eh ;# 
   385  010E                     # 3273 "C:\Program Files (x86)\Microchip\xc8\v2.00\pic\include\pic16f887.h"
   386                           EEADRH equ 010Fh ;# 
   387  010F                     # 3280 "C:\Program Files (x86)\Microchip\xc8\v2.00\pic\include\pic16f887.h"
   388                           SRCON equ 0185h ;# 
   389  0185                     # 3337 "C:\Program Files (x86)\Microchip\xc8\v2.00\pic\include\pic16f887.h"
   390                           BAUDCTL equ 0187h ;# 
   391  0187                     # 3389 "C:\Program Files (x86)\Microchip\xc8\v2.00\pic\include\pic16f887.h"
   392                           ANSEL equ 0188h ;# 
   393  0188                     # 3451 "C:\Program Files (x86)\Microchip\xc8\v2.00\pic\include\pic16f887.h"
   394                           ANSELH equ 0189h ;# 
   395  0189                     # 3501 "C:\Program Files (x86)\Microchip\xc8\v2.00\pic\include\pic16f887.h"
   396                           EECON1 equ 018Ch ;# 
   397  018C                     # 3546 "C:\Program Files (x86)\Microchip\xc8\v2.00\pic\include\pic16f887.h"
   398                           EECON2 equ 018Dh ;# 
   399  018D                     # 54 "C:\Program Files (x86)\Microchip\xc8\v2.00\pic\include\pic16f887.h"
   400                           INDF equ 00h ;# 
   401  0000                     # 61 "C:\Program Files (x86)\Microchip\xc8\v2.00\pic\include\pic16f887.h"
   402                           TMR0 equ 01h ;# 
   403  0001                     # 68 "C:\Program Files (x86)\Microchip\xc8\v2.00\pic\include\pic16f887.h"
   404                           PCL equ 02h ;# 
   405  0002                     # 75 "C:\Program Files (x86)\Microchip\xc8\v2.00\pic\include\pic16f887.h"
   406                           STATUS equ 03h ;# 
   407  0003                     # 161 "C:\Program Files (x86)\Microchip\xc8\v2.00\pic\include\pic16f887.h"
   408                           FSR equ 04h ;# 
   409  0004                     # 168 "C:\Program Files (x86)\Microchip\xc8\v2.00\pic\include\pic16f887.h"
   410                           PORTA equ 05h ;# 
   411  0005                     # 230 "C:\Program Files (x86)\Microchip\xc8\v2.00\pic\include\pic16f887.h"
   412                           PORTB equ 06h ;# 
   413  0006                     # 292 "C:\Program Files (x86)\Microchip\xc8\v2.00\pic\include\pic16f887.h"
   414                           PORTC equ 07h ;# 
   415  0007                     # 354 "C:\Program Files (x86)\Microchip\xc8\v2.00\pic\include\pic16f887.h"
   416                           PORTD equ 08h ;# 
   417  0008                     # 416 "C:\Program Files (x86)\Microchip\xc8\v2.00\pic\include\pic16f887.h"
   418                           PORTE equ 09h ;# 
   419  0009                     # 454 "C:\Program Files (x86)\Microchip\xc8\v2.00\pic\include\pic16f887.h"
   420                           PCLATH equ 0Ah ;# 
   421  000A                     # 461 "C:\Program Files (x86)\Microchip\xc8\v2.00\pic\include\pic16f887.h"
   422                           INTCON equ 0Bh ;# 
   423  000B                     # 539 "C:\Program Files (x86)\Microchip\xc8\v2.00\pic\include\pic16f887.h"
   424                           PIR1 equ 0Ch ;# 
   425  000C                     # 595 "C:\Program Files (x86)\Microchip\xc8\v2.00\pic\include\pic16f887.h"
   426                           PIR2 equ 0Dh ;# 
   427  000D                     # 652 "C:\Program Files (x86)\Microchip\xc8\v2.00\pic\include\pic16f887.h"
   428                           TMR1 equ 0Eh ;# 
   429  000E                     # 659 "C:\Program Files (x86)\Microchip\xc8\v2.00\pic\include\pic16f887.h"
   430                           TMR1L equ 0Eh ;# 
   431  000E                     # 666 "C:\Program Files (x86)\Microchip\xc8\v2.00\pic\include\pic16f887.h"
   432                           TMR1H equ 0Fh ;# 
   433  000F                     # 673 "C:\Program Files (x86)\Microchip\xc8\v2.00\pic\include\pic16f887.h"
   434                           T1CON equ 010h ;# 
   435  0010                     # 767 "C:\Program Files (x86)\Microchip\xc8\v2.00\pic\include\pic16f887.h"
   436                           TMR2 equ 011h ;# 
   437  0011                     # 774 "C:\Program Files (x86)\Microchip\xc8\v2.00\pic\include\pic16f887.h"
   438                           T2CON equ 012h ;# 
   439  0012                     # 845 "C:\Program Files (x86)\Microchip\xc8\v2.00\pic\include\pic16f887.h"
   440                           SSPBUF equ 013h ;# 
   441  0013                     # 852 "C:\Program Files (x86)\Microchip\xc8\v2.00\pic\include\pic16f887.h"
   442                           SSPCON equ 014h ;# 
   443  0014                     # 922 "C:\Program Files (x86)\Microchip\xc8\v2.00\pic\include\pic16f887.h"
   444                           CCPR1 equ 015h ;# 
   445  0015                     # 929 "C:\Program Files (x86)\Microchip\xc8\v2.00\pic\include\pic16f887.h"
   446                           CCPR1L equ 015h ;# 
   447  0015                     # 936 "C:\Program Files (x86)\Microchip\xc8\v2.00\pic\include\pic16f887.h"
   448                           CCPR1H equ 016h ;# 
   449  0016                     # 943 "C:\Program Files (x86)\Microchip\xc8\v2.00\pic\include\pic16f887.h"
   450                           CCP1CON equ 017h ;# 
   451  0017                     # 1040 "C:\Program Files (x86)\Microchip\xc8\v2.00\pic\include\pic16f887.h"
   452                           RCSTA equ 018h ;# 
   453  0018                     # 1135 "C:\Program Files (x86)\Microchip\xc8\v2.00\pic\include\pic16f887.h"
   454                           TXREG equ 019h ;# 
   455  0019                     # 1142 "C:\Program Files (x86)\Microchip\xc8\v2.00\pic\include\pic16f887.h"
   456                           RCREG equ 01Ah ;# 
   457  001A                     # 1149 "C:\Program Files (x86)\Microchip\xc8\v2.00\pic\include\pic16f887.h"
   458                           CCPR2 equ 01Bh ;# 
   459  001B                     # 1156 "C:\Program Files (x86)\Microchip\xc8\v2.00\pic\include\pic16f887.h"
   460                           CCPR2L equ 01Bh ;# 
   461  001B                     # 1163 "C:\Program Files (x86)\Microchip\xc8\v2.00\pic\include\pic16f887.h"
   462                           CCPR2H equ 01Ch ;# 
   463  001C                     # 1170 "C:\Program Files (x86)\Microchip\xc8\v2.00\pic\include\pic16f887.h"
   464                           CCP2CON equ 01Dh ;# 
   465  001D                     # 1240 "C:\Program Files (x86)\Microchip\xc8\v2.00\pic\include\pic16f887.h"
   466                           ADRESH equ 01Eh ;# 
   467  001E                     # 1247 "C:\Program Files (x86)\Microchip\xc8\v2.00\pic\include\pic16f887.h"
   468                           ADCON0 equ 01Fh ;# 
   469  001F                     # 1348 "C:\Program Files (x86)\Microchip\xc8\v2.00\pic\include\pic16f887.h"
   470                           OPTION_REG equ 081h ;# 
   471  0081                     # 1418 "C:\Program Files (x86)\Microchip\xc8\v2.00\pic\include\pic16f887.h"
   472                           TRISA equ 085h ;# 
   473  0085                     # 1480 "C:\Program Files (x86)\Microchip\xc8\v2.00\pic\include\pic16f887.h"
   474                           TRISB equ 086h ;# 
   475  0086                     # 1542 "C:\Program Files (x86)\Microchip\xc8\v2.00\pic\include\pic16f887.h"
   476                           TRISC equ 087h ;# 
   477  0087                     # 1604 "C:\Program Files (x86)\Microchip\xc8\v2.00\pic\include\pic16f887.h"
   478                           TRISD equ 088h ;# 
   479  0088                     # 1666 "C:\Program Files (x86)\Microchip\xc8\v2.00\pic\include\pic16f887.h"
   480                           TRISE equ 089h ;# 
   481  0089                     # 1704 "C:\Program Files (x86)\Microchip\xc8\v2.00\pic\include\pic16f887.h"
   482                           PIE1 equ 08Ch ;# 
   483  008C                     # 1760 "C:\Program Files (x86)\Microchip\xc8\v2.00\pic\include\pic16f887.h"
   484                           PIE2 equ 08Dh ;# 
   485  008D                     # 1817 "C:\Program Files (x86)\Microchip\xc8\v2.00\pic\include\pic16f887.h"
   486                           PCON equ 08Eh ;# 
   487  008E                     # 1864 "C:\Program Files (x86)\Microchip\xc8\v2.00\pic\include\pic16f887.h"
   488                           OSCCON equ 08Fh ;# 
   489  008F                     # 1929 "C:\Program Files (x86)\Microchip\xc8\v2.00\pic\include\pic16f887.h"
   490                           OSCTUNE equ 090h ;# 
   491  0090                     # 1981 "C:\Program Files (x86)\Microchip\xc8\v2.00\pic\include\pic16f887.h"
   492                           SSPCON2 equ 091h ;# 
   493  0091                     # 2043 "C:\Program Files (x86)\Microchip\xc8\v2.00\pic\include\pic16f887.h"
   494                           PR2 equ 092h ;# 
   495  0092                     # 2050 "C:\Program Files (x86)\Microchip\xc8\v2.00\pic\include\pic16f887.h"
   496                           SSPADD equ 093h ;# 
   497  0093                     # 2057 "C:\Program Files (x86)\Microchip\xc8\v2.00\pic\include\pic16f887.h"
   498                           SSPMSK equ 093h ;# 
   499  0093                     # 2062 "C:\Program Files (x86)\Microchip\xc8\v2.00\pic\include\pic16f887.h"
   500                           MSK equ 093h ;# 
   501  0093                     # 2179 "C:\Program Files (x86)\Microchip\xc8\v2.00\pic\include\pic16f887.h"
   502                           SSPSTAT equ 094h ;# 
   503  0094                     # 2348 "C:\Program Files (x86)\Microchip\xc8\v2.00\pic\include\pic16f887.h"
   504                           WPUB equ 095h ;# 
   505  0095                     # 2418 "C:\Program Files (x86)\Microchip\xc8\v2.00\pic\include\pic16f887.h"
   506                           IOCB equ 096h ;# 
   507  0096                     # 2488 "C:\Program Files (x86)\Microchip\xc8\v2.00\pic\include\pic16f887.h"
   508                           VRCON equ 097h ;# 
   509  0097                     # 2558 "C:\Program Files (x86)\Microchip\xc8\v2.00\pic\include\pic16f887.h"
   510                           TXSTA equ 098h ;# 
   511  0098                     # 2644 "C:\Program Files (x86)\Microchip\xc8\v2.00\pic\include\pic16f887.h"
   512                           SPBRG equ 099h ;# 
   513  0099                     # 2706 "C:\Program Files (x86)\Microchip\xc8\v2.00\pic\include\pic16f887.h"
   514                           SPBRGH equ 09Ah ;# 
   515  009A                     # 2776 "C:\Program Files (x86)\Microchip\xc8\v2.00\pic\include\pic16f887.h"
   516                           PWM1CON equ 09Bh ;# 
   517  009B                     # 2846 "C:\Program Files (x86)\Microchip\xc8\v2.00\pic\include\pic16f887.h"
   518                           ECCPAS equ 09Ch ;# 
   519  009C                     # 2928 "C:\Program Files (x86)\Microchip\xc8\v2.00\pic\include\pic16f887.h"
   520                           PSTRCON equ 09Dh ;# 
   521  009D                     # 2972 "C:\Program Files (x86)\Microchip\xc8\v2.00\pic\include\pic16f887.h"
   522                           ADRESL equ 09Eh ;# 
   523  009E                     # 2979 "C:\Program Files (x86)\Microchip\xc8\v2.00\pic\include\pic16f887.h"
   524                           ADCON1 equ 09Fh ;# 
   525  009F                     # 3013 "C:\Program Files (x86)\Microchip\xc8\v2.00\pic\include\pic16f887.h"
   526                           WDTCON equ 0105h ;# 
   527  0105                     # 3066 "C:\Program Files (x86)\Microchip\xc8\v2.00\pic\include\pic16f887.h"
   528                           CM1CON0 equ 0107h ;# 
   529  0107                     # 3131 "C:\Program Files (x86)\Microchip\xc8\v2.00\pic\include\pic16f887.h"
   530                           CM2CON0 equ 0108h ;# 
   531  0108                     # 3196 "C:\Program Files (x86)\Microchip\xc8\v2.00\pic\include\pic16f887.h"
   532                           CM2CON1 equ 0109h ;# 
   533  0109                     # 3247 "C:\Program Files (x86)\Microchip\xc8\v2.00\pic\include\pic16f887.h"
   534                           EEDATA equ 010Ch ;# 
   535  010C                     # 3252 "C:\Program Files (x86)\Microchip\xc8\v2.00\pic\include\pic16f887.h"
   536                           EEDAT equ 010Ch ;# 
   537  010C                     # 3259 "C:\Program Files (x86)\Microchip\xc8\v2.00\pic\include\pic16f887.h"
   538                           EEADR equ 010Dh ;# 
   539  010D                     # 3266 "C:\Program Files (x86)\Microchip\xc8\v2.00\pic\include\pic16f887.h"
   540                           EEDATH equ 010Eh ;# 
   541  010E                     # 3273 "C:\Program Files (x86)\Microchip\xc8\v2.00\pic\include\pic16f887.h"
   542                           EEADRH equ 010Fh ;# 
   543  010F                     # 3280 "C:\Program Files (x86)\Microchip\xc8\v2.00\pic\include\pic16f887.h"
   544                           SRCON equ 0185h ;# 
   545  0185                     # 3337 "C:\Program Files (x86)\Microchip\xc8\v2.00\pic\include\pic16f887.h"
   546                           BAUDCTL equ 0187h ;# 
   547  0187                     # 3389 "C:\Program Files (x86)\Microchip\xc8\v2.00\pic\include\pic16f887.h"
   548                           ANSEL equ 0188h ;# 
   549  0188                     # 3451 "C:\Program Files (x86)\Microchip\xc8\v2.00\pic\include\pic16f887.h"
   550                           ANSELH equ 0189h ;# 
   551  0189                     # 3501 "C:\Program Files (x86)\Microchip\xc8\v2.00\pic\include\pic16f887.h"
   552                           EECON1 equ 018Ch ;# 
   553  018C                     # 3546 "C:\Program Files (x86)\Microchip\xc8\v2.00\pic\include\pic16f887.h"
   554                           EECON2 equ 018Dh ;# 
   555  018D                     # 54 "C:\Program Files (x86)\Microchip\xc8\v2.00\pic\include\pic16f887.h"
   556                           INDF equ 00h ;# 
   557  0000                     # 61 "C:\Program Files (x86)\Microchip\xc8\v2.00\pic\include\pic16f887.h"
   558                           TMR0 equ 01h ;# 
   559  0001                     # 68 "C:\Program Files (x86)\Microchip\xc8\v2.00\pic\include\pic16f887.h"
   560                           PCL equ 02h ;# 
   561  0002                     # 75 "C:\Program Files (x86)\Microchip\xc8\v2.00\pic\include\pic16f887.h"
   562                           STATUS equ 03h ;# 
   563  0003                     # 161 "C:\Program Files (x86)\Microchip\xc8\v2.00\pic\include\pic16f887.h"
   564                           FSR equ 04h ;# 
   565  0004                     # 168 "C:\Program Files (x86)\Microchip\xc8\v2.00\pic\include\pic16f887.h"
   566                           PORTA equ 05h ;# 
   567  0005                     # 230 "C:\Program Files (x86)\Microchip\xc8\v2.00\pic\include\pic16f887.h"
   568                           PORTB equ 06h ;# 
   569  0006                     # 292 "C:\Program Files (x86)\Microchip\xc8\v2.00\pic\include\pic16f887.h"
   570                           PORTC equ 07h ;# 
   571  0007                     # 354 "C:\Program Files (x86)\Microchip\xc8\v2.00\pic\include\pic16f887.h"
   572                           PORTD equ 08h ;# 
   573  0008                     # 416 "C:\Program Files (x86)\Microchip\xc8\v2.00\pic\include\pic16f887.h"
   574                           PORTE equ 09h ;# 
   575  0009                     # 454 "C:\Program Files (x86)\Microchip\xc8\v2.00\pic\include\pic16f887.h"
   576                           PCLATH equ 0Ah ;# 
   577  000A                     # 461 "C:\Program Files (x86)\Microchip\xc8\v2.00\pic\include\pic16f887.h"
   578                           INTCON equ 0Bh ;# 
   579  000B                     # 539 "C:\Program Files (x86)\Microchip\xc8\v2.00\pic\include\pic16f887.h"
   580                           PIR1 equ 0Ch ;# 
   581  000C                     # 595 "C:\Program Files (x86)\Microchip\xc8\v2.00\pic\include\pic16f887.h"
   582                           PIR2 equ 0Dh ;# 
   583  000D                     # 652 "C:\Program Files (x86)\Microchip\xc8\v2.00\pic\include\pic16f887.h"
   584                           TMR1 equ 0Eh ;# 
   585  000E                     # 659 "C:\Program Files (x86)\Microchip\xc8\v2.00\pic\include\pic16f887.h"
   586                           TMR1L equ 0Eh ;# 
   587  000E                     # 666 "C:\Program Files (x86)\Microchip\xc8\v2.00\pic\include\pic16f887.h"
   588                           TMR1H equ 0Fh ;# 
   589  000F                     # 673 "C:\Program Files (x86)\Microchip\xc8\v2.00\pic\include\pic16f887.h"
   590                           T1CON equ 010h ;# 
   591  0010                     # 767 "C:\Program Files (x86)\Microchip\xc8\v2.00\pic\include\pic16f887.h"
   592                           TMR2 equ 011h ;# 
   593  0011                     # 774 "C:\Program Files (x86)\Microchip\xc8\v2.00\pic\include\pic16f887.h"
   594                           T2CON equ 012h ;# 
   595  0012                     # 845 "C:\Program Files (x86)\Microchip\xc8\v2.00\pic\include\pic16f887.h"
   596                           SSPBUF equ 013h ;# 
   597  0013                     # 852 "C:\Program Files (x86)\Microchip\xc8\v2.00\pic\include\pic16f887.h"
   598                           SSPCON equ 014h ;# 
   599  0014                     # 922 "C:\Program Files (x86)\Microchip\xc8\v2.00\pic\include\pic16f887.h"
   600                           CCPR1 equ 015h ;# 
   601  0015                     # 929 "C:\Program Files (x86)\Microchip\xc8\v2.00\pic\include\pic16f887.h"
   602                           CCPR1L equ 015h ;# 
   603  0015                     # 936 "C:\Program Files (x86)\Microchip\xc8\v2.00\pic\include\pic16f887.h"
   604                           CCPR1H equ 016h ;# 
   605  0016                     # 943 "C:\Program Files (x86)\Microchip\xc8\v2.00\pic\include\pic16f887.h"
   606                           CCP1CON equ 017h ;# 
   607  0017                     # 1040 "C:\Program Files (x86)\Microchip\xc8\v2.00\pic\include\pic16f887.h"
   608                           RCSTA equ 018h ;# 
   609  0018                     # 1135 "C:\Program Files (x86)\Microchip\xc8\v2.00\pic\include\pic16f887.h"
   610                           TXREG equ 019h ;# 
   611  0019                     # 1142 "C:\Program Files (x86)\Microchip\xc8\v2.00\pic\include\pic16f887.h"
   612                           RCREG equ 01Ah ;# 
   613  001A                     # 1149 "C:\Program Files (x86)\Microchip\xc8\v2.00\pic\include\pic16f887.h"
   614                           CCPR2 equ 01Bh ;# 
   615  001B                     # 1156 "C:\Program Files (x86)\Microchip\xc8\v2.00\pic\include\pic16f887.h"
   616                           CCPR2L equ 01Bh ;# 
   617  001B                     # 1163 "C:\Program Files (x86)\Microchip\xc8\v2.00\pic\include\pic16f887.h"
   618                           CCPR2H equ 01Ch ;# 
   619  001C                     # 1170 "C:\Program Files (x86)\Microchip\xc8\v2.00\pic\include\pic16f887.h"
   620                           CCP2CON equ 01Dh ;# 
   621  001D                     # 1240 "C:\Program Files (x86)\Microchip\xc8\v2.00\pic\include\pic16f887.h"
   622                           ADRESH equ 01Eh ;# 
   623  001E                     # 1247 "C:\Program Files (x86)\Microchip\xc8\v2.00\pic\include\pic16f887.h"
   624                           ADCON0 equ 01Fh ;# 
   625  001F                     # 1348 "C:\Program Files (x86)\Microchip\xc8\v2.00\pic\include\pic16f887.h"
   626                           OPTION_REG equ 081h ;# 
   627  0081                     # 1418 "C:\Program Files (x86)\Microchip\xc8\v2.00\pic\include\pic16f887.h"
   628                           TRISA equ 085h ;# 
   629  0085                     # 1480 "C:\Program Files (x86)\Microchip\xc8\v2.00\pic\include\pic16f887.h"
   630                           TRISB equ 086h ;# 
   631  0086                     # 1542 "C:\Program Files (x86)\Microchip\xc8\v2.00\pic\include\pic16f887.h"
   632                           TRISC equ 087h ;# 
   633  0087                     # 1604 "C:\Program Files (x86)\Microchip\xc8\v2.00\pic\include\pic16f887.h"
   634                           TRISD equ 088h ;# 
   635  0088                     # 1666 "C:\Program Files (x86)\Microchip\xc8\v2.00\pic\include\pic16f887.h"
   636                           TRISE equ 089h ;# 
   637  0089                     # 1704 "C:\Program Files (x86)\Microchip\xc8\v2.00\pic\include\pic16f887.h"
   638                           PIE1 equ 08Ch ;# 
   639  008C                     # 1760 "C:\Program Files (x86)\Microchip\xc8\v2.00\pic\include\pic16f887.h"
   640                           PIE2 equ 08Dh ;# 
   641  008D                     # 1817 "C:\Program Files (x86)\Microchip\xc8\v2.00\pic\include\pic16f887.h"
   642                           PCON equ 08Eh ;# 
   643  008E                     # 1864 "C:\Program Files (x86)\Microchip\xc8\v2.00\pic\include\pic16f887.h"
   644                           OSCCON equ 08Fh ;# 
   645  008F                     # 1929 "C:\Program Files (x86)\Microchip\xc8\v2.00\pic\include\pic16f887.h"
   646                           OSCTUNE equ 090h ;# 
   647  0090                     # 1981 "C:\Program Files (x86)\Microchip\xc8\v2.00\pic\include\pic16f887.h"
   648                           SSPCON2 equ 091h ;# 
   649  0091                     # 2043 "C:\Program Files (x86)\Microchip\xc8\v2.00\pic\include\pic16f887.h"
   650                           PR2 equ 092h ;# 
   651  0092                     # 2050 "C:\Program Files (x86)\Microchip\xc8\v2.00\pic\include\pic16f887.h"
   652                           SSPADD equ 093h ;# 
   653  0093                     # 2057 "C:\Program Files (x86)\Microchip\xc8\v2.00\pic\include\pic16f887.h"
   654                           SSPMSK equ 093h ;# 
   655  0093                     # 2062 "C:\Program Files (x86)\Microchip\xc8\v2.00\pic\include\pic16f887.h"
   656                           MSK equ 093h ;# 
   657  0093                     # 2179 "C:\Program Files (x86)\Microchip\xc8\v2.00\pic\include\pic16f887.h"
   658                           SSPSTAT equ 094h ;# 
   659  0094                     # 2348 "C:\Program Files (x86)\Microchip\xc8\v2.00\pic\include\pic16f887.h"
   660                           WPUB equ 095h ;# 
   661  0095                     # 2418 "C:\Program Files (x86)\Microchip\xc8\v2.00\pic\include\pic16f887.h"
   662                           IOCB equ 096h ;# 
   663  0096                     # 2488 "C:\Program Files (x86)\Microchip\xc8\v2.00\pic\include\pic16f887.h"
   664                           VRCON equ 097h ;# 
   665  0097                     # 2558 "C:\Program Files (x86)\Microchip\xc8\v2.00\pic\include\pic16f887.h"
   666                           TXSTA equ 098h ;# 
   667  0098                     # 2644 "C:\Program Files (x86)\Microchip\xc8\v2.00\pic\include\pic16f887.h"
   668                           SPBRG equ 099h ;# 
   669  0099                     # 2706 "C:\Program Files (x86)\Microchip\xc8\v2.00\pic\include\pic16f887.h"
   670                           SPBRGH equ 09Ah ;# 
   671  009A                     # 2776 "C:\Program Files (x86)\Microchip\xc8\v2.00\pic\include\pic16f887.h"
   672                           PWM1CON equ 09Bh ;# 
   673  009B                     # 2846 "C:\Program Files (x86)\Microchip\xc8\v2.00\pic\include\pic16f887.h"
   674                           ECCPAS equ 09Ch ;# 
   675  009C                     # 2928 "C:\Program Files (x86)\Microchip\xc8\v2.00\pic\include\pic16f887.h"
   676                           PSTRCON equ 09Dh ;# 
   677  009D                     # 2972 "C:\Program Files (x86)\Microchip\xc8\v2.00\pic\include\pic16f887.h"
   678                           ADRESL equ 09Eh ;# 
   679  009E                     # 2979 "C:\Program Files (x86)\Microchip\xc8\v2.00\pic\include\pic16f887.h"
   680                           ADCON1 equ 09Fh ;# 
   681  009F                     # 3013 "C:\Program Files (x86)\Microchip\xc8\v2.00\pic\include\pic16f887.h"
   682                           WDTCON equ 0105h ;# 
   683  0105                     # 3066 "C:\Program Files (x86)\Microchip\xc8\v2.00\pic\include\pic16f887.h"
   684                           CM1CON0 equ 0107h ;# 
   685  0107                     # 3131 "C:\Program Files (x86)\Microchip\xc8\v2.00\pic\include\pic16f887.h"
   686                           CM2CON0 equ 0108h ;# 
   687  0108                     # 3196 "C:\Program Files (x86)\Microchip\xc8\v2.00\pic\include\pic16f887.h"
   688                           CM2CON1 equ 0109h ;# 
   689  0109                     # 3247 "C:\Program Files (x86)\Microchip\xc8\v2.00\pic\include\pic16f887.h"
   690                           EEDATA equ 010Ch ;# 
   691  010C                     # 3252 "C:\Program Files (x86)\Microchip\xc8\v2.00\pic\include\pic16f887.h"
   692                           EEDAT equ 010Ch ;# 
   693  010C                     # 3259 "C:\Program Files (x86)\Microchip\xc8\v2.00\pic\include\pic16f887.h"
   694                           EEADR equ 010Dh ;# 
   695  010D                     # 3266 "C:\Program Files (x86)\Microchip\xc8\v2.00\pic\include\pic16f887.h"
   696                           EEDATH equ 010Eh ;# 
   697  010E                     # 3273 "C:\Program Files (x86)\Microchip\xc8\v2.00\pic\include\pic16f887.h"
   698                           EEADRH equ 010Fh ;# 
   699  010F                     # 3280 "C:\Program Files (x86)\Microchip\xc8\v2.00\pic\include\pic16f887.h"
   700                           SRCON equ 0185h ;# 
   701  0185                     # 3337 "C:\Program Files (x86)\Microchip\xc8\v2.00\pic\include\pic16f887.h"
   702                           BAUDCTL equ 0187h ;# 
   703  0187                     # 3389 "C:\Program Files (x86)\Microchip\xc8\v2.00\pic\include\pic16f887.h"
   704                           ANSEL equ 0188h ;# 
   705  0188                     # 3451 "C:\Program Files (x86)\Microchip\xc8\v2.00\pic\include\pic16f887.h"
   706                           ANSELH equ 0189h ;# 
   707  0189                     # 3501 "C:\Program Files (x86)\Microchip\xc8\v2.00\pic\include\pic16f887.h"
   708                           EECON1 equ 018Ch ;# 
   709  018C                     # 3546 "C:\Program Files (x86)\Microchip\xc8\v2.00\pic\include\pic16f887.h"
   710                           EECON2 equ 018Dh ;# 
   711  018D                     # 54 "C:\Program Files (x86)\Microchip\xc8\v2.00\pic\include\pic16f887.h"
   712                           INDF equ 00h ;# 
   713  0000                     # 61 "C:\Program Files (x86)\Microchip\xc8\v2.00\pic\include\pic16f887.h"
   714                           TMR0 equ 01h ;# 
   715  0001                     # 68 "C:\Program Files (x86)\Microchip\xc8\v2.00\pic\include\pic16f887.h"
   716                           PCL equ 02h ;# 
   717  0002                     # 75 "C:\Program Files (x86)\Microchip\xc8\v2.00\pic\include\pic16f887.h"
   718                           STATUS equ 03h ;# 
   719  0003                     # 161 "C:\Program Files (x86)\Microchip\xc8\v2.00\pic\include\pic16f887.h"
   720                           FSR equ 04h ;# 
   721  0004                     # 168 "C:\Program Files (x86)\Microchip\xc8\v2.00\pic\include\pic16f887.h"
   722                           PORTA equ 05h ;# 
   723  0005                     # 230 "C:\Program Files (x86)\Microchip\xc8\v2.00\pic\include\pic16f887.h"
   724                           PORTB equ 06h ;# 
   725  0006                     # 292 "C:\Program Files (x86)\Microchip\xc8\v2.00\pic\include\pic16f887.h"
   726                           PORTC equ 07h ;# 
   727  0007                     # 354 "C:\Program Files (x86)\Microchip\xc8\v2.00\pic\include\pic16f887.h"
   728                           PORTD equ 08h ;# 
   729  0008                     # 416 "C:\Program Files (x86)\Microchip\xc8\v2.00\pic\include\pic16f887.h"
   730                           PORTE equ 09h ;# 
   731  0009                     # 454 "C:\Program Files (x86)\Microchip\xc8\v2.00\pic\include\pic16f887.h"
   732                           PCLATH equ 0Ah ;# 
   733  000A                     # 461 "C:\Program Files (x86)\Microchip\xc8\v2.00\pic\include\pic16f887.h"
   734                           INTCON equ 0Bh ;# 
   735  000B                     # 539 "C:\Program Files (x86)\Microchip\xc8\v2.00\pic\include\pic16f887.h"
   736                           PIR1 equ 0Ch ;# 
   737  000C                     # 595 "C:\Program Files (x86)\Microchip\xc8\v2.00\pic\include\pic16f887.h"
   738                           PIR2 equ 0Dh ;# 
   739  000D                     # 652 "C:\Program Files (x86)\Microchip\xc8\v2.00\pic\include\pic16f887.h"
   740                           TMR1 equ 0Eh ;# 
   741  000E                     # 659 "C:\Program Files (x86)\Microchip\xc8\v2.00\pic\include\pic16f887.h"
   742                           TMR1L equ 0Eh ;# 
   743  000E                     # 666 "C:\Program Files (x86)\Microchip\xc8\v2.00\pic\include\pic16f887.h"
   744                           TMR1H equ 0Fh ;# 
   745  000F                     # 673 "C:\Program Files (x86)\Microchip\xc8\v2.00\pic\include\pic16f887.h"
   746                           T1CON equ 010h ;# 
   747  0010                     # 767 "C:\Program Files (x86)\Microchip\xc8\v2.00\pic\include\pic16f887.h"
   748                           TMR2 equ 011h ;# 
   749  0011                     # 774 "C:\Program Files (x86)\Microchip\xc8\v2.00\pic\include\pic16f887.h"
   750                           T2CON equ 012h ;# 
   751  0012                     # 845 "C:\Program Files (x86)\Microchip\xc8\v2.00\pic\include\pic16f887.h"
   752                           SSPBUF equ 013h ;# 
   753  0013                     # 852 "C:\Program Files (x86)\Microchip\xc8\v2.00\pic\include\pic16f887.h"
   754                           SSPCON equ 014h ;# 
   755  0014                     # 922 "C:\Program Files (x86)\Microchip\xc8\v2.00\pic\include\pic16f887.h"
   756                           CCPR1 equ 015h ;# 
   757  0015                     # 929 "C:\Program Files (x86)\Microchip\xc8\v2.00\pic\include\pic16f887.h"
   758                           CCPR1L equ 015h ;# 
   759  0015                     # 936 "C:\Program Files (x86)\Microchip\xc8\v2.00\pic\include\pic16f887.h"
   760                           CCPR1H equ 016h ;# 
   761  0016                     # 943 "C:\Program Files (x86)\Microchip\xc8\v2.00\pic\include\pic16f887.h"
   762                           CCP1CON equ 017h ;# 
   763  0017                     # 1040 "C:\Program Files (x86)\Microchip\xc8\v2.00\pic\include\pic16f887.h"
   764                           RCSTA equ 018h ;# 
   765  0018                     # 1135 "C:\Program Files (x86)\Microchip\xc8\v2.00\pic\include\pic16f887.h"
   766                           TXREG equ 019h ;# 
   767  0019                     # 1142 "C:\Program Files (x86)\Microchip\xc8\v2.00\pic\include\pic16f887.h"
   768                           RCREG equ 01Ah ;# 
   769  001A                     # 1149 "C:\Program Files (x86)\Microchip\xc8\v2.00\pic\include\pic16f887.h"
   770                           CCPR2 equ 01Bh ;# 
   771  001B                     # 1156 "C:\Program Files (x86)\Microchip\xc8\v2.00\pic\include\pic16f887.h"
   772                           CCPR2L equ 01Bh ;# 
   773  001B                     # 1163 "C:\Program Files (x86)\Microchip\xc8\v2.00\pic\include\pic16f887.h"
   774                           CCPR2H equ 01Ch ;# 
   775  001C                     # 1170 "C:\Program Files (x86)\Microchip\xc8\v2.00\pic\include\pic16f887.h"
   776                           CCP2CON equ 01Dh ;# 
   777  001D                     # 1240 "C:\Program Files (x86)\Microchip\xc8\v2.00\pic\include\pic16f887.h"
   778                           ADRESH equ 01Eh ;# 
   779  001E                     # 1247 "C:\Program Files (x86)\Microchip\xc8\v2.00\pic\include\pic16f887.h"
   780                           ADCON0 equ 01Fh ;# 
   781  001F                     # 1348 "C:\Program Files (x86)\Microchip\xc8\v2.00\pic\include\pic16f887.h"
   782                           OPTION_REG equ 081h ;# 
   783  0081                     # 1418 "C:\Program Files (x86)\Microchip\xc8\v2.00\pic\include\pic16f887.h"
   784                           TRISA equ 085h ;# 
   785  0085                     # 1480 "C:\Program Files (x86)\Microchip\xc8\v2.00\pic\include\pic16f887.h"
   786                           TRISB equ 086h ;# 
   787  0086                     # 1542 "C:\Program Files (x86)\Microchip\xc8\v2.00\pic\include\pic16f887.h"
   788                           TRISC equ 087h ;# 
   789  0087                     # 1604 "C:\Program Files (x86)\Microchip\xc8\v2.00\pic\include\pic16f887.h"
   790                           TRISD equ 088h ;# 
   791  0088                     # 1666 "C:\Program Files (x86)\Microchip\xc8\v2.00\pic\include\pic16f887.h"
   792                           TRISE equ 089h ;# 
   793  0089                     # 1704 "C:\Program Files (x86)\Microchip\xc8\v2.00\pic\include\pic16f887.h"
   794                           PIE1 equ 08Ch ;# 
   795  008C                     # 1760 "C:\Program Files (x86)\Microchip\xc8\v2.00\pic\include\pic16f887.h"
   796                           PIE2 equ 08Dh ;# 
   797  008D                     # 1817 "C:\Program Files (x86)\Microchip\xc8\v2.00\pic\include\pic16f887.h"
   798                           PCON equ 08Eh ;# 
   799  008E                     # 1864 "C:\Program Files (x86)\Microchip\xc8\v2.00\pic\include\pic16f887.h"
   800                           OSCCON equ 08Fh ;# 
   801  008F                     # 1929 "C:\Program Files (x86)\Microchip\xc8\v2.00\pic\include\pic16f887.h"
   802                           OSCTUNE equ 090h ;# 
   803  0090                     # 1981 "C:\Program Files (x86)\Microchip\xc8\v2.00\pic\include\pic16f887.h"
   804                           SSPCON2 equ 091h ;# 
   805  0091                     # 2043 "C:\Program Files (x86)\Microchip\xc8\v2.00\pic\include\pic16f887.h"
   806                           PR2 equ 092h ;# 
   807  0092                     # 2050 "C:\Program Files (x86)\Microchip\xc8\v2.00\pic\include\pic16f887.h"
   808                           SSPADD equ 093h ;# 
   809  0093                     # 2057 "C:\Program Files (x86)\Microchip\xc8\v2.00\pic\include\pic16f887.h"
   810                           SSPMSK equ 093h ;# 
   811  0093                     # 2062 "C:\Program Files (x86)\Microchip\xc8\v2.00\pic\include\pic16f887.h"
   812                           MSK equ 093h ;# 
   813  0093                     # 2179 "C:\Program Files (x86)\Microchip\xc8\v2.00\pic\include\pic16f887.h"
   814                           SSPSTAT equ 094h ;# 
   815  0094                     # 2348 "C:\Program Files (x86)\Microchip\xc8\v2.00\pic\include\pic16f887.h"
   816                           WPUB equ 095h ;# 
   817  0095                     # 2418 "C:\Program Files (x86)\Microchip\xc8\v2.00\pic\include\pic16f887.h"
   818                           IOCB equ 096h ;# 
   819  0096                     # 2488 "C:\Program Files (x86)\Microchip\xc8\v2.00\pic\include\pic16f887.h"
   820                           VRCON equ 097h ;# 
   821  0097                     # 2558 "C:\Program Files (x86)\Microchip\xc8\v2.00\pic\include\pic16f887.h"
   822                           TXSTA equ 098h ;# 
   823  0098                     # 2644 "C:\Program Files (x86)\Microchip\xc8\v2.00\pic\include\pic16f887.h"
   824                           SPBRG equ 099h ;# 
   825  0099                     # 2706 "C:\Program Files (x86)\Microchip\xc8\v2.00\pic\include\pic16f887.h"
   826                           SPBRGH equ 09Ah ;# 
   827  009A                     # 2776 "C:\Program Files (x86)\Microchip\xc8\v2.00\pic\include\pic16f887.h"
   828                           PWM1CON equ 09Bh ;# 
   829  009B                     # 2846 "C:\Program Files (x86)\Microchip\xc8\v2.00\pic\include\pic16f887.h"
   830                           ECCPAS equ 09Ch ;# 
   831  009C                     # 2928 "C:\Program Files (x86)\Microchip\xc8\v2.00\pic\include\pic16f887.h"
   832                           PSTRCON equ 09Dh ;# 
   833  009D                     # 2972 "C:\Program Files (x86)\Microchip\xc8\v2.00\pic\include\pic16f887.h"
   834                           ADRESL equ 09Eh ;# 
   835  009E                     # 2979 "C:\Program Files (x86)\Microchip\xc8\v2.00\pic\include\pic16f887.h"
   836                           ADCON1 equ 09Fh ;# 
   837  009F                     # 3013 "C:\Program Files (x86)\Microchip\xc8\v2.00\pic\include\pic16f887.h"
   838                           WDTCON equ 0105h ;# 
   839  0105                     # 3066 "C:\Program Files (x86)\Microchip\xc8\v2.00\pic\include\pic16f887.h"
   840                           CM1CON0 equ 0107h ;# 
   841  0107                     # 3131 "C:\Program Files (x86)\Microchip\xc8\v2.00\pic\include\pic16f887.h"
   842                           CM2CON0 equ 0108h ;# 
   843  0108                     # 3196 "C:\Program Files (x86)\Microchip\xc8\v2.00\pic\include\pic16f887.h"
   844                           CM2CON1 equ 0109h ;# 
   845  0109                     # 3247 "C:\Program Files (x86)\Microchip\xc8\v2.00\pic\include\pic16f887.h"
   846                           EEDATA equ 010Ch ;# 
   847  010C                     # 3252 "C:\Program Files (x86)\Microchip\xc8\v2.00\pic\include\pic16f887.h"
   848                           EEDAT equ 010Ch ;# 
   849  010C                     # 3259 "C:\Program Files (x86)\Microchip\xc8\v2.00\pic\include\pic16f887.h"
   850                           EEADR equ 010Dh ;# 
   851  010D                     # 3266 "C:\Program Files (x86)\Microchip\xc8\v2.00\pic\include\pic16f887.h"
   852                           EEDATH equ 010Eh ;# 
   853  010E                     # 3273 "C:\Program Files (x86)\Microchip\xc8\v2.00\pic\include\pic16f887.h"
   854                           EEADRH equ 010Fh ;# 
   855  010F                     # 3280 "C:\Program Files (x86)\Microchip\xc8\v2.00\pic\include\pic16f887.h"
   856                           SRCON equ 0185h ;# 
   857  0185                     # 3337 "C:\Program Files (x86)\Microchip\xc8\v2.00\pic\include\pic16f887.h"
   858                           BAUDCTL equ 0187h ;# 
   859  0187                     # 3389 "C:\Program Files (x86)\Microchip\xc8\v2.00\pic\include\pic16f887.h"
   860                           ANSEL equ 0188h ;# 
   861  0188                     # 3451 "C:\Program Files (x86)\Microchip\xc8\v2.00\pic\include\pic16f887.h"
   862                           ANSELH equ 0189h ;# 
   863  0189                     # 3501 "C:\Program Files (x86)\Microchip\xc8\v2.00\pic\include\pic16f887.h"
   864                           EECON1 equ 018Ch ;# 
   865  018C                     # 3546 "C:\Program Files (x86)\Microchip\xc8\v2.00\pic\include\pic16f887.h"
   866                           EECON2 equ 018Dh ;# 
   867  018D                     	FNCALL	_main,_dispLCD
   868                           	FNCALL	_main,_dispLCD_init
   869                           	FNCALL	_main,_dispLCD_num
   870                           	FNCALL	_main,_timers_init
   871                           	FNCALL	_dispLCD_num,___awdiv
   872                           	FNCALL	_dispLCD_num,___awmod
   873                           	FNCALL	_dispLCD_num,_dispLCD_dataReg
   874                           	FNCALL	_dispLCD_num,_dispLCD_lincol
   875                           	FNCALL	_dispLCD_init,_delay
   876                           	FNCALL	_dispLCD_init,_dispLCD_instReg
   877                           	FNCALL	_dispLCD,_dispLCD_dataReg
   878                           	FNCALL	_dispLCD,_dispLCD_lincol
   879                           	FNCALL	_dispLCD_lincol,_dispLCD_instReg
   880                           	FNROOT	_main
   881                           	FNCALL	intlevel1,_isr
   882                           	global	intlevel1
   883                           	FNROOT	intlevel1
   884                           	global	_t1seg
   885                           	global	_contador
   886                           	global	_INTCONbits
   887                           _INTCONbits	set	0xB
   888  000B                     	global	_TMR0
   889                           _TMR0	set	0x1
   890  0001                     	global	_LCDbits
   891                           psect	text0,local,class=CODE,delta=2,merge=1
   892                           global __ptext0
   893                           __ptext0:
   894  0000                     _LCDbits	set	8
   895  0008                     	global	_OPTION_REGbits
   896                           _OPTION_REGbits	set	0x81
   897  0081                     	global	_TRISDbits
   898                           _TRISDbits	set	0x88
   899  0088                     psect	strings,class=STRING,delta=2,noexec
   900                           global __pstrings
   901                           __pstrings:
   902  0354                     stringtab:
   903  0354                     	global    __stringtab
   904                           __stringtab:
   905  0354                     ;	String table - string pointers are 1 byte each
   906                           stringcode:stringdir:
   907  0354                     movlw high(stringdir)
      + 0354                     stringdir:	
   908  0354  3003               movwf pclath
   909  0355  008A               movf fsr,w
   910  0356  0804               incf fsr
   911  0357  0A84               	addwf pc
   912  0358  0782               	global __stringbase
   913                           __stringbase:
   914  0359                     	retlw	0
   915  0359  3400               psect	strings
   916                           	global    __end_of__stringtab
   917                           __end_of__stringtab:
   918  035A                     	
   919                           STR_1:	
   920  035A                     	retlw	67	;'C'
   921  035A  3443               	retlw	111	;'o'
   922  035B  346F               	retlw	110	;'n'
   923  035C  346E               	retlw	116	;'t'
   924  035D  3474               	retlw	97	;'a'
   925  035E  3461               	retlw	100	;'d'
   926  035F  3464               	retlw	111	;'o'
   927  0360  346F               	retlw	114	;'r'
   928  0361  3472               	retlw	58	;':'
   929  0362  343A               	retlw	32	;' '
   930  0363  3420               	retlw	32	;' '
   931  0364  3420               	retlw	32	;' '
   932  0365  3420               	retlw	32	;' '
   933  0366  3420               	retlw	32	;' '
   934  0367  3420               	retlw	32	;' '
   935  0368  3420               	retlw	32	;' '
   936  0369  3420               	retlw	0
   937  036A  3400               psect	strings
   938                           ; #config settings
   939                           global __CFG_FOSC$INTRC_NOCLKOUT
   940                           __CFG_FOSC$INTRC_NOCLKOUT equ 0x0
   941  0000                     global __CFG_WDTE$OFF
   942                           __CFG_WDTE$OFF equ 0x0
   943  0000                     global __CFG_PWRTE$OFF
   944                           __CFG_PWRTE$OFF equ 0x0
   945  0000                     global __CFG_MCLRE$OFF
   946                           __CFG_MCLRE$OFF equ 0x0
   947  0000                     global __CFG_CP$OFF
   948                           __CFG_CP$OFF equ 0x0
   949  0000                     global __CFG_CPD$OFF
   950                           __CFG_CPD$OFF equ 0x0
   951  0000                     global __CFG_BOREN$OFF
   952                           __CFG_BOREN$OFF equ 0x0
   953  0000                     global __CFG_IESO$OFF
   954                           __CFG_IESO$OFF equ 0x0
   955  0000                     global __CFG_FCMEN$OFF
   956                           __CFG_FCMEN$OFF equ 0x0
   957  0000                     global __CFG_LVP$OFF
   958                           __CFG_LVP$OFF equ 0x0
   959  0000                     global __CFG_BOR4V$BOR40V
   960                           __CFG_BOR4V$BOR40V equ 0x0
   961  0000                     global __CFG_WRT$OFF
   962                           __CFG_WRT$OFF equ 0x0
   963  0000                     	file	"C:\Users\20185076\AppData\Local\Temp\s2mc."
   964                           	line	#
   965                           psect cinit,class=CODE,delta=2
   966                           global start_initialization
   967                           start_initialization:
   968  000F                     
   969                           global __initialization
   970                           __initialization:
   971  000F                     psect	bssCOMMON,class=COMMON,space=1,noexec
   972                           global __pbssCOMMON
   973                           __pbssCOMMON:
   974  007A                     _t1seg:
   975  007A                            ds      2
   976  007A                     
   977                           psect	bssBANK0,class=BANK0,space=1,noexec
   978                           global __pbssBANK0
   979                           __pbssBANK0:
   980  0032                     _contador:
   981  0032                            ds      2
   982  0032                     
   983                           	file	"C:\Users\20185076\AppData\Local\Temp\s2mc."
   984                           	line	#
   985                           ; Clear objects allocated to COMMON
   986                           psect cinit,class=CODE,delta=2,merge=1
   987                           	clrf	((__pbssCOMMON)+0)&07Fh
   988  000F  01FA               	clrf	((__pbssCOMMON)+1)&07Fh
   989  0010  01FB               ; Clear objects allocated to BANK0
   990                           psect cinit,class=CODE,delta=2,merge=1
   991                           	bcf	status, 5	;RP0=0, select bank0
   992  0011  1283               	bcf	status, 6	;RP1=0, select bank0
   993  0012  1303               	clrf	((__pbssBANK0)+0)&07Fh
   994  0013  01B2               	clrf	((__pbssBANK0)+1)&07Fh
   995  0014  01B3               psect cinit,class=CODE,delta=2,merge=1
   996                           global end_of_initialization,__end_of__initialization
   997                           
   998                           ;End of C runtime variable initialization code
   999                           
  1000                           end_of_initialization:
  1001  0015                     __end_of__initialization:
  1002  0015                     clrf status
  1003  0015  0183               ljmp _main	;jump to C main() function
  1004  0016  120A  118A  2ACE   psect	cstackCOMMON,class=COMMON,space=1,noexec
  1005                           global __pcstackCOMMON
  1006                           __pcstackCOMMON:
  1007  0070                     ?_dispLCD_init:	; 1 bytes @ 0x0
  1008  0070                     ?_timers_init:	; 1 bytes @ 0x0
  1009  0070                     ?_main:	; 1 bytes @ 0x0
  1010  0070                     ?_dispLCD_instReg:	; 1 bytes @ 0x0
  1011  0070                     ?_dispLCD_dataReg:	; 1 bytes @ 0x0
  1012  0070                     ?_isr:	; 1 bytes @ 0x0
  1013  0070                     ??_isr:	; 1 bytes @ 0x0
  1014  0070                     	ds	2
  1015  0070                     ??_timers_init:	; 1 bytes @ 0x2
  1016  0072                     ?_delay:	; 1 bytes @ 0x2
  1017  0072                     ??_dispLCD_instReg:	; 1 bytes @ 0x2
  1018  0072                     ??_dispLCD_dataReg:	; 1 bytes @ 0x2
  1019  0072                     	global	?___awdiv
  1020                           ?___awdiv:	; 2 bytes @ 0x2
  1021  0072                     	global	?___awmod
  1022                           ?___awmod:	; 2 bytes @ 0x2
  1023  0072                     	global	delay@t
  1024                           delay@t:	; 2 bytes @ 0x2
  1025  0072                     	global	___awdiv@divisor
  1026                           ___awdiv@divisor:	; 2 bytes @ 0x2
  1027  0072                     	global	___awmod@divisor
  1028                           ___awmod@divisor:	; 2 bytes @ 0x2
  1029  0072                     	ds	1
  1030  0072                     	global	dispLCD_dataReg@d
  1031                           dispLCD_dataReg@d:	; 1 bytes @ 0x3
  1032  0073                     	ds	1
  1033  0073                     ??_delay:	; 1 bytes @ 0x4
  1034  0074                     	global	dispLCD_instReg@i
  1035                           dispLCD_instReg@i:	; 1 bytes @ 0x4
  1036  0074                     	global	___awdiv@dividend
  1037                           ___awdiv@dividend:	; 2 bytes @ 0x4
  1038  0074                     	global	___awmod@dividend
  1039                           ___awmod@dividend:	; 2 bytes @ 0x4
  1040  0074                     	ds	1
  1041  0074                     ??_dispLCD_init:	; 1 bytes @ 0x5
  1042  0075                     ?_dispLCD_lincol:	; 1 bytes @ 0x5
  1043  0075                     	global	dispLCD_lincol@col
  1044                           dispLCD_lincol@col:	; 1 bytes @ 0x5
  1045  0075                     	ds	1
  1046  0075                     ??_dispLCD_lincol:	; 1 bytes @ 0x6
  1047  0076                     ??___awdiv:	; 1 bytes @ 0x6
  1048  0076                     ??___awmod:	; 1 bytes @ 0x6
  1049  0076                     	ds	1
  1050  0076                     	global	dispLCD_lincol@lin
  1051                           dispLCD_lincol@lin:	; 1 bytes @ 0x7
  1052  0077                     	global	___awmod@counter
  1053                           ___awmod@counter:	; 1 bytes @ 0x7
  1054  0077                     	ds	1
  1055  0077                     ?_dispLCD:	; 1 bytes @ 0x8
  1056  0078                     	global	dispLCD@col
  1057                           dispLCD@col:	; 1 bytes @ 0x8
  1058  0078                     	global	___awmod@sign
  1059                           ___awmod@sign:	; 1 bytes @ 0x8
  1060  0078                     	ds	1
  1061  0078                     	global	dispLCD@str
  1062                           dispLCD@str:	; 1 bytes @ 0x9
  1063  0079                     	ds	1
  1064  0079                     psect	cstackBANK0,class=BANK0,space=1,noexec
  1065                           global __pcstackBANK0
  1066                           __pcstackBANK0:
  1067  0020                     ??_dispLCD:	; 1 bytes @ 0x0
  1068  0020                     	global	___awdiv@counter
  1069                           ___awdiv@counter:	; 1 bytes @ 0x0
  1070  0020                     	ds	1
  1071  0020                     	global	dispLCD@pos
  1072                           dispLCD@pos:	; 1 bytes @ 0x1
  1073  0021                     	global	___awdiv@sign
  1074                           ___awdiv@sign:	; 1 bytes @ 0x1
  1075  0021                     	ds	1
  1076  0021                     	global	dispLCD@lin
  1077                           dispLCD@lin:	; 1 bytes @ 0x2
  1078  0022                     	global	___awdiv@quotient
  1079                           ___awdiv@quotient:	; 2 bytes @ 0x2
  1080  0022                     	ds	2
  1081  0022                     ?_dispLCD_num:	; 1 bytes @ 0x4
  1082  0024                     	global	dispLCD_num@col
  1083                           dispLCD_num@col:	; 1 bytes @ 0x4
  1084  0024                     	ds	1
  1085  0024                     	global	dispLCD_num@num
  1086                           dispLCD_num@num:	; 2 bytes @ 0x5
  1087  0025                     	ds	2
  1088  0025                     	global	dispLCD_num@tam
  1089                           dispLCD_num@tam:	; 1 bytes @ 0x7
  1090  0027                     	ds	1
  1091  0027                     ??_dispLCD_num:	; 1 bytes @ 0x8
  1092  0028                     	ds	3
  1093  0028                     	global	dispLCD_num@lin
  1094                           dispLCD_num@lin:	; 1 bytes @ 0xB
  1095  002B                     	ds	1
  1096  002B                     	global	dispLCD_num@size
  1097                           dispLCD_num@size:	; 1 bytes @ 0xC
  1098  002C                     	ds	1
  1099  002C                     	global	dispLCD_num@sinal
  1100                           dispLCD_num@sinal:	; 1 bytes @ 0xD
  1101  002D                     	ds	1
  1102  002D                     	global	dispLCD_num@div
  1103                           dispLCD_num@div:	; 2 bytes @ 0xE
  1104  002E                     	ds	2
  1105  002E                     ??_main:	; 1 bytes @ 0x10
  1106  0030                     	ds	2
  1107  0030                     ;!
  1108                           ;!Data Sizes:
  1109                           ;!    Strings     17
  1110                           ;!    Constant    0
  1111                           ;!    Data        0
  1112                           ;!    BSS         4
  1113                           ;!    Persistent  0
  1114                           ;!    Stack       0
  1115                           ;!
  1116                           ;!Auto Spaces:
  1117                           ;!    Space          Size  Autos    Used
  1118                           ;!    COMMON           14     10      12
  1119                           ;!    BANK0            80     18      20
  1120                           ;!    BANK1            80      0       0
  1121                           ;!    BANK3            96      0       0
  1122                           ;!    BANK2            96      0       0
  1123                           
  1124                           ;!
  1125                           ;!Pointer List with Targets:
  1126                           ;!
  1127                           ;!    dispLCD@str	PTR const unsigned char  size(1) Largest target is 17
  1128                           ;!		 -> STR_1(CODE[17]), 
  1129                           ;!
  1130                           
  1131                           
  1132                           ;!
  1133                           ;!Critical Paths under _main in COMMON
  1134                           ;!
  1135                           ;!    _main->_dispLCD
  1136                           ;!    _dispLCD_num->___awmod
  1137                           ;!    _dispLCD_init->_delay
  1138                           ;!    _dispLCD_init->_dispLCD_instReg
  1139                           ;!    _dispLCD->_dispLCD_lincol
  1140                           ;!    _dispLCD_lincol->_dispLCD_instReg
  1141                           ;!
  1142                           ;!Critical Paths under _isr in COMMON
  1143                           ;!
  1144                           ;!    None.
  1145                           ;!
  1146                           ;!Critical Paths under _main in BANK0
  1147                           ;!
  1148                           ;!    _main->_dispLCD_num
  1149                           ;!    _dispLCD_num->___awdiv
  1150                           ;!
  1151                           ;!Critical Paths under _isr in BANK0
  1152                           ;!
  1153                           ;!    None.
  1154                           ;!
  1155                           ;!Critical Paths under _main in BANK1
  1156                           ;!
  1157                           ;!    None.
  1158                           ;!
  1159                           ;!Critical Paths under _isr in BANK1
  1160                           ;!
  1161                           ;!    None.
  1162                           ;!
  1163                           ;!Critical Paths under _main in BANK3
  1164                           ;!
  1165                           ;!    None.
  1166                           ;!
  1167                           ;!Critical Paths under _isr in BANK3
  1168                           ;!
  1169                           ;!    None.
  1170                           ;!
  1171                           ;!Critical Paths under _main in BANK2
  1172                           ;!
  1173                           ;!    None.
  1174                           ;!
  1175                           ;!Critical Paths under _isr in BANK2
  1176                           ;!
  1177                           ;!    None.
  1178                           
  1179 ;;
  1180 ;;Main: autosize = 0, tempsize = 2, incstack = 0, save=0
  1181 ;;
  1182                           
  1183                           ;!
  1184                           ;!Call Graph Tables:
  1185                           ;!
  1186                           ;! ---------------------------------------------------------------------------------
  1187                           ;! (Depth) Function   	        Calls       Base Space   Used Autos Params    Refs
  1188                           ;! ---------------------------------------------------------------------------------
  1189                           ;! (0) _main                                                 2     2      0    4133
  1190                           ;!                                             16 BANK0      2     2      0
  1191                           ;!                            _dispLCD
  1192                           ;!                       _dispLCD_init
  1193                           ;!                        _dispLCD_num
  1194                           ;!                        _timers_init
  1195                           ;! ---------------------------------------------------------------------------------
  1196                           ;! (1) _timers_init                                          0     0      0       0
  1197                           ;! ---------------------------------------------------------------------------------
  1198                           ;! (1) _dispLCD_num                                         12     8      4    2946
  1199                           ;!                                              4 BANK0     12     8      4
  1200                           ;!                            ___awdiv
  1201                           ;!                            ___awmod
  1202                           ;!                    _dispLCD_dataReg
  1203                           ;!                     _dispLCD_lincol
  1204                           ;! ---------------------------------------------------------------------------------
  1205                           ;! (2) ___awmod                                              7     3      4     448
  1206                           ;!                                              2 COMMON     7     3      4
  1207                           ;! ---------------------------------------------------------------------------------
  1208                           ;! (2) ___awdiv                                              9     5      4    1165
  1209                           ;!                                              2 COMMON     5     1      4
  1210                           ;!                                              0 BANK0      4     4      0
  1211                           ;! ---------------------------------------------------------------------------------
  1212                           ;! (1) _dispLCD_init                                         0     0      0     427
  1213                           ;!                              _delay
  1214                           ;!                    _dispLCD_instReg
  1215                           ;! ---------------------------------------------------------------------------------
  1216                           ;! (2) _delay                                                3     1      2     251
  1217                           ;!                                              2 COMMON     3     1      2
  1218                           ;! ---------------------------------------------------------------------------------
  1219                           ;! (1) _dispLCD                                              5     3      2     760
  1220                           ;!                                              8 COMMON     2     0      2
  1221                           ;!                                              0 BANK0      3     3      0
  1222                           ;!                    _dispLCD_dataReg
  1223                           ;!                     _dispLCD_lincol
  1224                           ;! ---------------------------------------------------------------------------------
  1225                           ;! (2) _dispLCD_lincol                                       3     2      1     372
  1226                           ;!                                              5 COMMON     3     2      1
  1227                           ;!                    _dispLCD_instReg
  1228                           ;! ---------------------------------------------------------------------------------
  1229                           ;! (3) _dispLCD_instReg                                      3     3      0     176
  1230                           ;!                                              2 COMMON     3     3      0
  1231                           ;! ---------------------------------------------------------------------------------
  1232                           ;! (2) _dispLCD_dataReg                                      2     2      0      44
  1233                           ;!                                              2 COMMON     2     2      0
  1234                           ;! ---------------------------------------------------------------------------------
  1235                           ;! Estimated maximum stack depth 3
  1236                           ;! ---------------------------------------------------------------------------------
  1237                           ;! (Depth) Function   	        Calls       Base Space   Used Autos Params    Refs
  1238                           ;! ---------------------------------------------------------------------------------
  1239                           ;! (4) _isr                                                  2     2      0       0
  1240                           ;!                                              0 COMMON     2     2      0
  1241                           ;! ---------------------------------------------------------------------------------
  1242                           ;! Estimated maximum stack depth 4
  1243                           ;! ---------------------------------------------------------------------------------
  1244                           ;!
  1245                           ;! Call Graph Graphs:
  1246                           ;!
  1247                           ;! _main (ROOT)
  1248                           ;!   _dispLCD
  1249                           ;!     _dispLCD_dataReg
  1250                           ;!     _dispLCD_lincol
  1251                           ;!       _dispLCD_instReg
  1252                           ;!   _dispLCD_init
  1253                           ;!     _delay
  1254                           ;!     _dispLCD_instReg
  1255                           ;!   _dispLCD_num
  1256                           ;!     ___awdiv
  1257                           ;!     ___awmod
  1258                           ;!     _dispLCD_dataReg
  1259                           ;!     _dispLCD_lincol
  1260                           ;!       _dispLCD_instReg
  1261                           ;!   _timers_init
  1262                           ;!
  1263                           ;! _isr (ROOT)
  1264                           ;!
  1265                           
  1266                           ;! Address spaces:
  1267                           
  1268                           ;!Name               Size   Autos  Total    Cost      Usage
  1269                           ;!BITCOMMON            E      0       0       0        0.0%
  1270                           ;!EEDATA             100      0       0       0        0.0%
  1271                           ;!NULL                 0      0       0       0        0.0%
  1272                           ;!CODE                 0      0       0       0        0.0%
  1273                           ;!COMMON               E      A       C       1       85.7%
  1274                           ;!BITSFR0              0      0       0       1        0.0%
  1275                           ;!SFR0                 0      0       0       1        0.0%
  1276                           ;!BITSFR1              0      0       0       2        0.0%
  1277                           ;!SFR1                 0      0       0       2        0.0%
  1278                           ;!STACK                0      0       0       2        0.0%
  1279                           ;!ABS                  0      0      20       3        0.0%
  1280                           ;!BITBANK0            50      0       0       4        0.0%
  1281                           ;!BITSFR3              0      0       0       4        0.0%
  1282                           ;!SFR3                 0      0       0       4        0.0%
  1283                           ;!BANK0               50     12      14       5       25.0%
  1284                           ;!BITSFR2              0      0       0       5        0.0%
  1285                           ;!SFR2                 0      0       0       5        0.0%
  1286                           ;!BITBANK1            50      0       0       6        0.0%
  1287                           ;!BANK1               50      0       0       7        0.0%
  1288                           ;!BITBANK3            60      0       0       8        0.0%
  1289                           ;!BANK3               60      0       0       9        0.0%
  1290                           ;!BITBANK2            60      0       0      10        0.0%
  1291                           ;!BANK2               60      0       0      11        0.0%
  1292                           ;!DATA                 0      0      20      12        0.0%
  1293                           
  1294                           	global	_main
  1295                           
  1296 ;; *************** function _main *****************
  1297 ;; Defined at:
  1298 ;;		line 16 in file "main.c"
  1299 ;; Parameters:    Size  Location     Type
  1300 ;;		None
  1301 ;; Auto vars:     Size  Location     Type
  1302 ;;		None
  1303 ;; Return value:  Size  Location     Type
  1304 ;;                  1    wreg      void 
  1305 ;; Registers used:
  1306 ;;		wreg, fsr0l, fsr0h, status,2, status,0, btemp+1, pclath, cstack
  1307 ;; Tracked objects:
  1308 ;;		On entry : B00/0
  1309 ;;		On exit  : 0/0
  1310 ;;		Unchanged: 0/0
  1311 ;; Data sizes:     COMMON   BANK0   BANK1   BANK3   BANK2
  1312 ;;      Params:         0       0       0       0       0
  1313 ;;      Locals:         0       0       0       0       0
  1314 ;;      Temps:          0       2       0       0       0
  1315 ;;      Totals:         0       2       0       0       0
  1316 ;;Total ram usage:        2 bytes
  1317 ;; Hardware stack levels required when called:    4
  1318 ;; This function calls:
  1319 ;;		_dispLCD
  1320 ;;		_dispLCD_init
  1321 ;;		_dispLCD_num
  1322 ;;		_timers_init
  1323 ;; This function is called by:
  1324 ;;		Startup code after reset
  1325 ;; This function uses a non-reentrant model
  1326 ;;
  1327                           psect	maintext,global,class=CODE,delta=2,split=1,group=0
  1328                           	file	"main.c"
  1329                           	line	16
  1330                           global __pmaintext
  1331                           __pmaintext:	;psect for function _main
  1332  02CE                     psect	maintext
  1333                           	file	"main.c"
  1334                           	line	16
  1335                           	global	__size_of_main
  1336                           	__size_of_main	equ	__end_of_main-_main
  1337  0031                     	
  1338                           _main:	
  1339  02CE                     ;incstack = 0
  1340                           	opt	stack 4
  1341                           ; Regs used in _main: [wreg-fsr0h+status,2+status,0+btemp+1+pclath+cstack]
  1342                           	line	18
  1343                           	
  1344                           l1274:	
  1345  02CE                     ;main.c: 18:     dispLCD_init();
  1346                           	fcall	_dispLCD_init
  1347  02CE  120A  118A  2256  120A  118A  	line	19
  1348                           ;main.c: 19:     timers_init();
  1349                           	fcall	_timers_init
  1350  02D3  120A  118A  2395  120A  118A  	line	21
  1351                           	
  1352                           l1276:	
  1353  02D8                     ;main.c: 21:     dispLCD(0,0,"Contador:       ");
  1354                           	clrf	(dispLCD@col)
  1355  02D8  01F8               	movlw	(low((((STR_1)-__stringbase)|8000h)))&0ffh
  1356  02D9  3001               	bcf	status, 5	;RP0=0, select bank0
  1357  02DA  1283               	bcf	status, 6	;RP1=0, select bank0
  1358  02DB  1303               	movwf	(??_main+0)+0
  1359  02DC  00B0               	movf	(??_main+0)+0,w
  1360  02DD  0830               	movwf	(dispLCD@str)
  1361  02DE  00F9               	movlw	low(0)
  1362  02DF  3000               	fcall	_dispLCD
  1363  02E0  120A  118A  2297  120A  118A  	goto	l1278
  1364  02E5  2AE6               	line	22
  1365                           ;main.c: 22:     while( 1 )
  1366                           	
  1367                           l15:	
  1368  02E6                     	line	24
  1369                           	
  1370                           l1278:	
  1371  02E6                     ;main.c: 23:     {;main.c: 24:         dispLCD_num(0,10, contador, 5 );
  1372                           	movlw	low(0Ah)
  1373  02E6  300A               	bcf	status, 5	;RP0=0, select bank0
  1374  02E7  1283               	bcf	status, 6	;RP1=0, select bank0
  1375  02E8  1303               	movwf	(??_main+0)+0
  1376  02E9  00B0               	movf	(??_main+0)+0,w
  1377  02EA  0830               	movwf	(dispLCD_num@col)
  1378  02EB  00A4               	movf	(_contador+1),w
  1379  02EC  0833               	movwf	(dispLCD_num@num+1)
  1380  02ED  00A6               	movf	(_contador),w
  1381  02EE  0832               	movwf	(dispLCD_num@num)
  1382  02EF  00A5               	movlw	low(05h)
  1383  02F0  3005               	movwf	(??_main+1)+0
  1384  02F1  00B1               	movf	(??_main+1)+0,w
  1385  02F2  0831               	movwf	(dispLCD_num@tam)
  1386  02F3  00A7               	movlw	low(0)
  1387  02F4  3000               	fcall	_dispLCD_num
  1388  02F5  120A  118A  2019  120A  118A  	goto	l1278
  1389  02FA  2AE6               	line	25
  1390                           ;main.c: 25:     }
  1391                           	
  1392                           l16:	
  1393  02FB                     	goto	l1278
  1394  02FB  2AE6               	
  1395                           l17:	
  1396  02FC                     	line	26
  1397                           	
  1398                           l18:	
  1399  02FC                     	global	start
  1400                           	ljmp	start
  1401  02FC  120A  118A  280C   	opt stack 0
  1402                           GLOBAL	__end_of_main
  1403                           	__end_of_main:
  1404  02FF                     	signat	_main,89
  1405                           	global	_timers_init
  1406                           
  1407 ;; *************** function _timers_init *****************
  1408 ;; Defined at:
  1409 ;;		line 18 in file "timer.c"
  1410 ;; Parameters:    Size  Location     Type
  1411 ;;		None
  1412 ;; Auto vars:     Size  Location     Type
  1413 ;;		None
  1414 ;; Return value:  Size  Location     Type
  1415 ;;                  1    wreg      void 
  1416 ;; Registers used:
  1417 ;;		wreg, status,2
  1418 ;; Tracked objects:
  1419 ;;		On entry : 0/0
  1420 ;;		On exit  : 0/0
  1421 ;;		Unchanged: 0/0
  1422 ;; Data sizes:     COMMON   BANK0   BANK1   BANK3   BANK2
  1423 ;;      Params:         0       0       0       0       0
  1424 ;;      Locals:         0       0       0       0       0
  1425 ;;      Temps:          0       0       0       0       0
  1426 ;;      Totals:         0       0       0       0       0
  1427 ;;Total ram usage:        0 bytes
  1428 ;; Hardware stack levels used:    1
  1429 ;; Hardware stack levels required when called:    1
  1430 ;; This function calls:
  1431 ;;		Nothing
  1432 ;; This function is called by:
  1433 ;;		_main
  1434 ;; This function uses a non-reentrant model
  1435 ;;
  1436                           psect	text1,local,class=CODE,delta=2,merge=1,group=0
  1437                           	file	"timer.c"
  1438                           	line	18
  1439                           global __ptext1
  1440                           __ptext1:	;psect for function _timers_init
  1441  0395                     psect	text1
  1442                           	file	"timer.c"
  1443                           	line	18
  1444                           	global	__size_of_timers_init
  1445                           	__size_of_timers_init	equ	__end_of_timers_init-_timers_init
  1446  0011                     	
  1447                           _timers_init:	
  1448  0395                     ;incstack = 0
  1449                           	opt	stack 6
  1450                           ; Regs used in _timers_init: [wreg+status,2]
  1451                           	line	20
  1452                           	
  1453                           l1106:	
  1454  0395                     ;timer.c: 20:     OPTION_REGbits.T0CS = 0;
  1455                           	bsf	status, 5	;RP0=1, select bank1
  1456  0395  1683               	bcf	status, 6	;RP1=0, select bank1
  1457  0396  1303               	bcf	(129)^080h,5	;volatile
  1458  0397  1281               	line	21
  1459                           ;timer.c: 21:     OPTION_REGbits.PSA = 1;
  1460                           	bsf	(129)^080h,3	;volatile
  1461  0398  1581               	line	22
  1462                           	
  1463                           l1108:	
  1464  0399                     ;timer.c: 22:     TMR0 = 256-100;
  1465                           	movlw	low(09Ch)
  1466  0399  309C               	bcf	status, 5	;RP0=0, select bank0
  1467  039A  1283               	bcf	status, 6	;RP1=0, select bank0
  1468  039B  1303               	movwf	(1)	;volatile
  1469  039C  0081               	line	23
  1470                           	
  1471                           l1110:	
  1472  039D                     ;timer.c: 23:     INTCONbits.TMR0IE = 1;
  1473                           	bsf	(11),5	;volatile
  1474  039D  168B               	line	24
  1475                           	
  1476                           l1112:	
  1477  039E                     ;timer.c: 24:     INTCONbits.GIE = 1;
  1478                           	bsf	(11),7	;volatile
  1479  039E  178B               	line	25
  1480                           	
  1481                           l1114:	
  1482  039F                     ;timer.c: 25:     contador = 0;
  1483                           	clrf	(_contador)
  1484  039F  01B2               	clrf	(_contador+1)
  1485  03A0  01B3               	line	26
  1486                           	
  1487                           l1116:	
  1488  03A1                     ;timer.c: 26:     t1seg = 10000;
  1489                           	movlw	010h
  1490  03A1  3010               	movwf	(_t1seg)
  1491  03A2  00FA               	movlw	027h
  1492  03A3  3027               	movwf	((_t1seg))+1
  1493  03A4  00FB               	line	27
  1494                           	
  1495                           l92:	
  1496  03A5                     	return
  1497  03A5  0008               	opt stack 0
  1498                           GLOBAL	__end_of_timers_init
  1499                           	__end_of_timers_init:
  1500  03A6                     	signat	_timers_init,89
  1501                           	global	_dispLCD_num
  1502                           
  1503 ;; *************** function _dispLCD_num *****************
  1504 ;; Defined at:
  1505 ;;		line 168 in file "dispLCD4vias.c"
  1506 ;; Parameters:    Size  Location     Type
  1507 ;;  lin             1    wreg     unsigned char 
  1508 ;;  col             1    4[BANK0 ] unsigned char 
  1509 ;;  num             2    5[BANK0 ] int 
  1510 ;;  tam             1    7[BANK0 ] unsigned char 
  1511 ;; Auto vars:     Size  Location     Type
  1512 ;;  lin             1   11[BANK0 ] unsigned char 
  1513 ;;  div             2   14[BANK0 ] int 
  1514 ;;  sinal           1   13[BANK0 ] unsigned char 
  1515 ;;  size            1   12[BANK0 ] unsigned char 
  1516 ;; Return value:  Size  Location     Type
  1517 ;;                  1    wreg      void 
  1518 ;; Registers used:
  1519 ;;		wreg, status,2, status,0, btemp+1, pclath, cstack
  1520 ;; Tracked objects:
  1521 ;;		On entry : 0/0
  1522 ;;		On exit  : 0/0
  1523 ;;		Unchanged: 0/0
  1524 ;; Data sizes:     COMMON   BANK0   BANK1   BANK3   BANK2
  1525 ;;      Params:         0       4       0       0       0
  1526 ;;      Locals:         0       5       0       0       0
  1527 ;;      Temps:          0       3       0       0       0
  1528 ;;      Totals:         0      12       0       0       0
  1529 ;;Total ram usage:       12 bytes
  1530 ;; Hardware stack levels used:    1
  1531 ;; Hardware stack levels required when called:    3
  1532 ;; This function calls:
  1533 ;;		___awdiv
  1534 ;;		___awmod
  1535 ;;		_dispLCD_dataReg
  1536 ;;		_dispLCD_lincol
  1537 ;; This function is called by:
  1538 ;;		_main
  1539 ;; This function uses a non-reentrant model
  1540 ;;
  1541                           psect	text2,local,class=CODE,delta=2,merge=1,group=0
  1542                           	file	"dispLCD4vias.c"
  1543                           	line	168
  1544                           global __ptext2
  1545                           __ptext2:	;psect for function _dispLCD_num
  1546  0019                     psect	text2
  1547                           	file	"dispLCD4vias.c"
  1548                           	line	168
  1549                           	global	__size_of_dispLCD_num
  1550                           	__size_of_dispLCD_num	equ	__end_of_dispLCD_num-_dispLCD_num
  1551  00EE                     	
  1552                           _dispLCD_num:	
  1553  0019                     ;incstack = 0
  1554                           	opt	stack 4
  1555                           ; Regs used in _dispLCD_num: [wreg+status,2+status,0+btemp+1+pclath+cstack]
  1556                           ;dispLCD_num@lin stored from wreg
  1557                           	bcf	status, 5	;RP0=0, select bank0
  1558  0019  1283               	bcf	status, 6	;RP1=0, select bank0
  1559  001A  1303               	movwf	(dispLCD_num@lin)
  1560  001B  00AB               	line	175
  1561                           	
  1562                           l1240:	
  1563  001C                     ;dispLCD4vias.c: 168: void dispLCD_num( unsigned char lin, unsigned char col,;dispLCD4vi
                                 as.c: 169:                     int num, unsigned char tam );dispLCD4vias.c: 170: {;dispL
                                 CD4vias.c: 171:     int div;;dispLCD4vias.c: 172:     unsigned char size;;dispLCD4vias.c
                                 : 173:     char sinal;;dispLCD4vias.c: 175:     sinal = num < 0;
  1564                           	btfsc	(dispLCD_num@num+1),7
  1565  001C  1BA6               	goto	u941
  1566  001D  281F               	goto	u940
  1567  001E  2821               u941:
  1568  001F                     	movlw	1
  1569  001F  3001               	goto	u950
  1570  0020  2822               u940:
  1571  0021                     	movlw	0
  1572  0021  3000               u950:
  1573  0022                     	movwf	(??_dispLCD_num+0)+0
  1574  0022  00A8               	movf	(??_dispLCD_num+0)+0,w
  1575  0023  0828               	movwf	(dispLCD_num@sinal)
  1576  0024  00AD               	line	176
  1577                           	
  1578                           l1242:	
  1579  0025                     ;dispLCD4vias.c: 176:     if( sinal )
  1580                           	movf	((dispLCD_num@sinal)),w
  1581  0025  082D               	btfsc	status,2
  1582  0026  1903               	goto	u961
  1583  0027  2829               	goto	u960
  1584  0028  282A               u961:
  1585  0029                     	goto	l1246
  1586  0029  2830               u960:
  1587  002A                     	line	177
  1588                           	
  1589                           l1244:	
  1590  002A                     ;dispLCD4vias.c: 177:         num = (~num) + 1;
  1591                           	comf	(dispLCD_num@num),f
  1592  002A  09A5               	comf	(dispLCD_num@num+1),f
  1593  002B  09A6               	incf	(dispLCD_num@num),f
  1594  002C  0AA5               	skipnz
  1595  002D  1903               	incf	(dispLCD_num@num+1),f
  1596  002E  0AA6               	goto	l1246
  1597  002F  2830               	
  1598                           l56:	
  1599  0030                     	line	179
  1600                           	
  1601                           l1246:	
  1602  0030                     ;dispLCD4vias.c: 179:     dispLCD_lincol(lin, col);
  1603                           	movf	(dispLCD_num@col),w
  1604  0030  0824               	movwf	(??_dispLCD_num+0)+0
  1605  0031  00A8               	movf	(??_dispLCD_num+0)+0,w
  1606  0032  0828               	movwf	(dispLCD_lincol@col)
  1607  0033  00F5               	movf	(dispLCD_num@lin),w
  1608  0034  082B               	fcall	_dispLCD_lincol
  1609  0035  120A  118A  2382  120A  118A  	line	181
  1610                           	
  1611                           l1248:	
  1612  003A                     ;dispLCD4vias.c: 181:     div=10000;
  1613                           	movlw	010h
  1614  003A  3010               	bcf	status, 5	;RP0=0, select bank0
  1615  003B  1283               	bcf	status, 6	;RP1=0, select bank0
  1616  003C  1303               	movwf	(dispLCD_num@div)
  1617  003D  00AE               	movlw	027h
  1618  003E  3027               	movwf	((dispLCD_num@div))+1
  1619  003F  00AF               	line	182
  1620                           	
  1621                           l1250:	
  1622  0040                     ;dispLCD4vias.c: 182:     size = 5;
  1623                           	movlw	low(05h)
  1624  0040  3005               	movwf	(??_dispLCD_num+0)+0
  1625  0041  00A8               	movf	(??_dispLCD_num+0)+0,w
  1626  0042  0828               	movwf	(dispLCD_num@size)
  1627  0043  00AC               	line	183
  1628                           ;dispLCD4vias.c: 183:     while( div >= 1 )
  1629                           	goto	l1258
  1630  0044  2874               	
  1631                           l58:	
  1632  0045                     	line	185
  1633                           	
  1634                           l1252:	
  1635  0045                     ;dispLCD4vias.c: 184:     {;dispLCD4vias.c: 185:         if( num/div == 0 )
  1636                           	bcf	status, 5	;RP0=0, select bank0
  1637  0045  1283               	bcf	status, 6	;RP1=0, select bank0
  1638  0046  1303               	movf	(dispLCD_num@div+1),w
  1639  0047  082F               	movwf	(___awdiv@divisor+1)
  1640  0048  00F3               	movf	(dispLCD_num@div),w
  1641  0049  082E               	movwf	(___awdiv@divisor)
  1642  004A  00F2               	movf	(dispLCD_num@num+1),w
  1643  004B  0826               	movwf	(___awdiv@dividend+1)
  1644  004C  00F5               	movf	(dispLCD_num@num),w
  1645  004D  0825               	movwf	(___awdiv@dividend)
  1646  004E  00F4               	fcall	___awdiv
  1647  004F  120A  118A  2180  120A  118A  	movf	((0+(?___awdiv))),w
  1648  0054  0872               iorwf	((1+(?___awdiv))),w
  1649  0055  0473               	btfss	status,2
  1650  0056  1D03               	goto	u971
  1651  0057  2859               	goto	u970
  1652  0058  285A               u971:
  1653  0059                     	goto	l1264
  1654  0059  288E               u970:
  1655  005A                     	line	186
  1656                           	
  1657                           l1254:	
  1658  005A                     ;dispLCD4vias.c: 186:             --size;
  1659                           	movlw	01h
  1660  005A  3001               	bcf	status, 5	;RP0=0, select bank0
  1661  005B  1283               	bcf	status, 6	;RP1=0, select bank0
  1662  005C  1303               	subwf	(dispLCD_num@size),f
  1663  005D  02AC               	goto	l1256
  1664  005E  2860               	line	187
  1665                           ;dispLCD4vias.c: 187:         else
  1666                           	
  1667                           l59:	
  1668  005F                     	line	188
  1669                           ;dispLCD4vias.c: 188:             break;
  1670                           	goto	l1264
  1671  005F  288E               	
  1672                           l60:	
  1673  0060                     	line	189
  1674                           	
  1675                           l1256:	
  1676  0060                     ;dispLCD4vias.c: 189:         div/=10;
  1677                           	movlw	0Ah
  1678  0060  300A               	movwf	(___awdiv@divisor)
  1679  0061  00F2               	movlw	0
  1680  0062  3000               	movwf	((___awdiv@divisor))+1
  1681  0063  00F3               	movf	(dispLCD_num@div+1),w
  1682  0064  082F               	movwf	(___awdiv@dividend+1)
  1683  0065  00F5               	movf	(dispLCD_num@div),w
  1684  0066  082E               	movwf	(___awdiv@dividend)
  1685  0067  00F4               	fcall	___awdiv
  1686  0068  120A  118A  2180  120A  118A  	movf	(1+(?___awdiv)),w
  1687  006D  0873               	bcf	status, 5	;RP0=0, select bank0
  1688  006E  1283               	bcf	status, 6	;RP1=0, select bank0
  1689  006F  1303               	movwf	(dispLCD_num@div+1)
  1690  0070  00AF               	movf	(0+(?___awdiv)),w
  1691  0071  0872               	movwf	(dispLCD_num@div)
  1692  0072  00AE               	goto	l1258
  1693  0073  2874               	line	190
  1694                           ;dispLCD4vias.c: 190:     }
  1695                           	
  1696                           l57:	
  1697  0074                     	line	183
  1698                           	
  1699                           l1258:	
  1700  0074                     ;dispLCD4vias.c: 183:     while( div >= 1 )
  1701                           	movf	(dispLCD_num@div+1),w
  1702  0074  082F               	xorlw	80h
  1703  0075  3A80               	movwf	btemp+1
  1704  0076  00FF               	movlw	(0)^80h
  1705  0077  3080               	subwf	btemp+1,w
  1706  0078  027F               	skipz
  1707  0079  1D03               	goto	u985
  1708  007A  287D               	movlw	01h
  1709  007B  3001               	subwf	(dispLCD_num@div),w
  1710  007C  022E               u985:
  1711  007D                     
  1712                           	skipnc
  1713  007D  1803               	goto	u981
  1714  007E  2880               	goto	u980
  1715  007F  2881               u981:
  1716  0080                     	goto	l1252
  1717  0080  2845               u980:
  1718  0081                     	goto	l1264
  1719  0081  288E               	
  1720                           l61:	
  1721  0082                     	line	192
  1722                           ;dispLCD4vias.c: 192:     while( tam > (size+sinal) && tam > 1 )
  1723                           	goto	l1264
  1724  0082  288E               	
  1725                           l63:	
  1726  0083                     	line	194
  1727                           	
  1728                           l1260:	
  1729  0083                     ;dispLCD4vias.c: 193:     {;dispLCD4vias.c: 194:         dispLCD_dataReg(' ');
  1730                           	movlw	low(020h)
  1731  0083  3020               	fcall	_dispLCD_dataReg
  1732  0084  120A  118A  22FF  120A  118A  	line	195
  1733                           	
  1734                           l1262:	
  1735  0089                     ;dispLCD4vias.c: 195:         --tam;
  1736                           	movlw	01h
  1737  0089  3001               	bcf	status, 5	;RP0=0, select bank0
  1738  008A  1283               	bcf	status, 6	;RP1=0, select bank0
  1739  008B  1303               	subwf	(dispLCD_num@tam),f
  1740  008C  02A7               	goto	l1264
  1741  008D  288E               	line	196
  1742                           ;dispLCD4vias.c: 196:     }
  1743                           	
  1744                           l62:	
  1745  008E                     	line	192
  1746                           	
  1747                           l1264:	
  1748  008E                     ;dispLCD4vias.c: 192:     while( tam > (size+sinal) && tam > 1 )
  1749                           	bcf	status, 5	;RP0=0, select bank0
  1750  008E  1283               	bcf	status, 6	;RP1=0, select bank0
  1751  008F  1303               	movf	(dispLCD_num@size),w
  1752  0090  082C               	addwf	(dispLCD_num@sinal),w
  1753  0091  072D               	movwf	(??_dispLCD_num+0)+0
  1754  0092  00A8               	clrf	(??_dispLCD_num+0)+0+1
  1755  0093  01A9               	rlf	1+(??_dispLCD_num+0)+0,f
  1756  0094  0DA9               	
  1757                           	movf	1+(??_dispLCD_num+0)+0,w
  1758  0095  0829               	xorlw	80h
  1759  0096  3A80               	movwf	(??_dispLCD_num+2)+0
  1760  0097  00AA               	movlw	80h
  1761  0098  3080               	subwf	(??_dispLCD_num+2)+0,w
  1762  0099  022A               	skipz
  1763  009A  1D03               	goto	u995
  1764  009B  289E               	movf	(dispLCD_num@tam),w
  1765  009C  0827               	subwf	0+(??_dispLCD_num+0)+0,w
  1766  009D  0228               u995:
  1767  009E                     
  1768                           	skipnc
  1769  009E  1803               	goto	u991
  1770  009F  28A1               	goto	u990
  1771  00A0  28A2               u991:
  1772  00A1                     	goto	l1268
  1773  00A1  28AC               u990:
  1774  00A2                     	
  1775                           l1266:	
  1776  00A2                     	movlw	low(02h)
  1777  00A2  3002               	bcf	status, 5	;RP0=0, select bank0
  1778  00A3  1283               	bcf	status, 6	;RP1=0, select bank0
  1779  00A4  1303               	subwf	(dispLCD_num@tam),w
  1780  00A5  0227               	skipnc
  1781  00A6  1803               	goto	u1001
  1782  00A7  28A9               	goto	u1000
  1783  00A8  28AA               u1001:
  1784  00A9                     	goto	l1260
  1785  00A9  2883               u1000:
  1786  00AA                     	goto	l1268
  1787  00AA  28AC               	
  1788                           l65:	
  1789  00AB                     	goto	l1268
  1790  00AB  28AC               	
  1791                           l66:	
  1792  00AC                     	line	198
  1793                           	
  1794                           l1268:	
  1795  00AC                     ;dispLCD4vias.c: 198:     if( sinal )
  1796                           	bcf	status, 5	;RP0=0, select bank0
  1797  00AC  1283               	bcf	status, 6	;RP1=0, select bank0
  1798  00AD  1303               	movf	((dispLCD_num@sinal)),w
  1799  00AE  082D               	btfsc	status,2
  1800  00AF  1903               	goto	u1011
  1801  00B0  28B2               	goto	u1010
  1802  00B1  28B3               u1011:
  1803  00B2                     	goto	l68
  1804  00B2  28BA               u1010:
  1805  00B3                     	line	199
  1806                           	
  1807                           l1270:	
  1808  00B3                     ;dispLCD4vias.c: 199:         dispLCD_dataReg('-');
  1809                           	movlw	low(02Dh)
  1810  00B3  302D               	fcall	_dispLCD_dataReg
  1811  00B4  120A  118A  22FF  120A  118A  	goto	l68
  1812  00B9  28BA               	
  1813                           l67:	
  1814  00BA                     	line	201
  1815                           ;dispLCD4vias.c: 201:     do
  1816                           	
  1817                           l68:	
  1818  00BA                     	line	203
  1819                           ;dispLCD4vias.c: 202:     {;dispLCD4vias.c: 203:         dispLCD_dataReg( (unsigned char
                                 )(num / div) + '0' );
  1820                           	bcf	status, 5	;RP0=0, select bank0
  1821  00BA  1283               	bcf	status, 6	;RP1=0, select bank0
  1822  00BB  1303               	movf	(dispLCD_num@div+1),w
  1823  00BC  082F               	movwf	(___awdiv@divisor+1)
  1824  00BD  00F3               	movf	(dispLCD_num@div),w
  1825  00BE  082E               	movwf	(___awdiv@divisor)
  1826  00BF  00F2               	movf	(dispLCD_num@num+1),w
  1827  00C0  0826               	movwf	(___awdiv@dividend+1)
  1828  00C1  00F5               	movf	(dispLCD_num@num),w
  1829  00C2  0825               	movwf	(___awdiv@dividend)
  1830  00C3  00F4               	fcall	___awdiv
  1831  00C4  120A  118A  2180  120A  118A  	movf	(0+(?___awdiv)),w
  1832  00C9  0872               	addlw	030h
  1833  00CA  3E30               	fcall	_dispLCD_dataReg
  1834  00CB  120A  118A  22FF  120A  118A  	line	204
  1835                           ;dispLCD4vias.c: 204:         num = num % div;
  1836                           	bcf	status, 5	;RP0=0, select bank0
  1837  00D0  1283               	bcf	status, 6	;RP1=0, select bank0
  1838  00D1  1303               	movf	(dispLCD_num@div+1),w
  1839  00D2  082F               	movwf	(___awmod@divisor+1)
  1840  00D3  00F3               	movf	(dispLCD_num@div),w
  1841  00D4  082E               	movwf	(___awmod@divisor)
  1842  00D5  00F2               	movf	(dispLCD_num@num+1),w
  1843  00D6  0826               	movwf	(___awmod@dividend+1)
  1844  00D7  00F5               	movf	(dispLCD_num@num),w
  1845  00D8  0825               	movwf	(___awmod@dividend)
  1846  00D9  00F4               	fcall	___awmod
  1847  00DA  120A  118A  21F3  120A  118A  	movf	(1+(?___awmod)),w
  1848  00DF  0873               	bcf	status, 5	;RP0=0, select bank0
  1849  00E0  1283               	bcf	status, 6	;RP1=0, select bank0
  1850  00E1  1303               	movwf	(dispLCD_num@num+1)
  1851  00E2  00A6               	movf	(0+(?___awmod)),w
  1852  00E3  0872               	movwf	(dispLCD_num@num)
  1853  00E4  00A5               	line	205
  1854                           ;dispLCD4vias.c: 205:         div/=10;
  1855                           	movlw	0Ah
  1856  00E5  300A               	movwf	(___awdiv@divisor)
  1857  00E6  00F2               	movlw	0
  1858  00E7  3000               	movwf	((___awdiv@divisor))+1
  1859  00E8  00F3               	movf	(dispLCD_num@div+1),w
  1860  00E9  082F               	movwf	(___awdiv@dividend+1)
  1861  00EA  00F5               	movf	(dispLCD_num@div),w
  1862  00EB  082E               	movwf	(___awdiv@dividend)
  1863  00EC  00F4               	fcall	___awdiv
  1864  00ED  120A  118A  2180  120A  118A  	movf	(1+(?___awdiv)),w
  1865  00F2  0873               	bcf	status, 5	;RP0=0, select bank0
  1866  00F3  1283               	bcf	status, 6	;RP1=0, select bank0
  1867  00F4  1303               	movwf	(dispLCD_num@div+1)
  1868  00F5  00AF               	movf	(0+(?___awdiv)),w
  1869  00F6  0872               	movwf	(dispLCD_num@div)
  1870  00F7  00AE               	line	206
  1871                           	
  1872                           l1272:	
  1873  00F8                     ;dispLCD4vias.c: 206:     }
  1874                           	movf	(dispLCD_num@div+1),w
  1875  00F8  082F               	xorlw	80h
  1876  00F9  3A80               	movwf	btemp+1
  1877  00FA  00FF               	movlw	(0)^80h
  1878  00FB  3080               	subwf	btemp+1,w
  1879  00FC  027F               	skipz
  1880  00FD  1D03               	goto	u1025
  1881  00FE  2901               	movlw	01h
  1882  00FF  3001               	subwf	(dispLCD_num@div),w
  1883  0100  022E               u1025:
  1884  0101                     
  1885                           	skipnc
  1886  0101  1803               	goto	u1021
  1887  0102  2904               	goto	u1020
  1888  0103  2905               u1021:
  1889  0104                     	goto	l68
  1890  0104  28BA               u1020:
  1891  0105                     	goto	l70
  1892  0105  2906               	
  1893                           l69:	
  1894  0106                     	line	208
  1895                           	
  1896                           l70:	
  1897  0106                     	return
  1898  0106  0008               	opt stack 0
  1899                           GLOBAL	__end_of_dispLCD_num
  1900                           	__end_of_dispLCD_num:
  1901  0107                     	signat	_dispLCD_num,16505
  1902                           	global	___awmod
  1903                           
  1904 ;; *************** function ___awmod *****************
  1905 ;; Defined at:
  1906 ;;		line 5 in file "C:\Program Files (x86)\Microchip\xc8\v2.00\pic\sources\c90\common\awmod.c"
  1907 ;; Parameters:    Size  Location     Type
  1908 ;;  divisor         2    2[COMMON] int 
  1909 ;;  dividend        2    4[COMMON] int 
  1910 ;; Auto vars:     Size  Location     Type
  1911 ;;  sign            1    8[COMMON] unsigned char 
  1912 ;;  counter         1    7[COMMON] unsigned char 
  1913 ;; Return value:  Size  Location     Type
  1914 ;;                  2    2[COMMON] int 
  1915 ;; Registers used:
  1916 ;;		wreg, status,2, status,0
  1917 ;; Tracked objects:
  1918 ;;		On entry : 0/0
  1919 ;;		On exit  : 0/0
  1920 ;;		Unchanged: 0/0
  1921 ;; Data sizes:     COMMON   BANK0   BANK1   BANK3   BANK2
  1922 ;;      Params:         4       0       0       0       0
  1923 ;;      Locals:         2       0       0       0       0
  1924 ;;      Temps:          1       0       0       0       0
  1925 ;;      Totals:         7       0       0       0       0
  1926 ;;Total ram usage:        7 bytes
  1927 ;; Hardware stack levels used:    1
  1928 ;; Hardware stack levels required when called:    1
  1929 ;; This function calls:
  1930 ;;		Nothing
  1931 ;; This function is called by:
  1932 ;;		_dispLCD_num
  1933 ;; This function uses a non-reentrant model
  1934 ;;
  1935                           psect	text3,local,class=CODE,delta=2,merge=1,group=1
  1936                           	file	"C:\Program Files (x86)\Microchip\xc8\v2.00\pic\sources\c90\common\awmod.c"
  1937                           	line	5
  1938                           global __ptext3
  1939                           __ptext3:	;psect for function ___awmod
  1940  01F3                     psect	text3
  1941                           	file	"C:\Program Files (x86)\Microchip\xc8\v2.00\pic\sources\c90\common\awmod.c"
  1942                           	line	5
  1943                           	global	__size_of___awmod
  1944                           	__size_of___awmod	equ	__end_of___awmod-___awmod
  1945  0063                     	
  1946                           ___awmod:	
  1947  01F3                     ;incstack = 0
  1948                           	opt	stack 5
  1949                           ; Regs used in ___awmod: [wreg+status,2+status,0]
  1950                           	line	12
  1951                           	
  1952                           l1048:	
  1953  01F3                     	clrf	(___awmod@sign)
  1954  01F3  01F8               	line	13
  1955                           	
  1956                           l1050:	
  1957  01F4                     	btfss	(___awmod@dividend+1),7
  1958  01F4  1FF5               	goto	u621
  1959  01F5  29F7               	goto	u620
  1960  01F6  29F8               u621:
  1961  01F7                     	goto	l1056
  1962  01F7  2A00               u620:
  1963  01F8                     	line	14
  1964                           	
  1965                           l1052:	
  1966  01F8                     	comf	(___awmod@dividend),f
  1967  01F8  09F4               	comf	(___awmod@dividend+1),f
  1968  01F9  09F5               	incf	(___awmod@dividend),f
  1969  01FA  0AF4               	skipnz
  1970  01FB  1903               	incf	(___awmod@dividend+1),f
  1971  01FC  0AF5               	line	15
  1972                           	
  1973                           l1054:	
  1974  01FD                     	clrf	(___awmod@sign)
  1975  01FD  01F8               	incf	(___awmod@sign),f
  1976  01FE  0AF8               	goto	l1056
  1977  01FF  2A00               	line	16
  1978                           	
  1979                           l349:	
  1980  0200                     	line	17
  1981                           	
  1982                           l1056:	
  1983  0200                     	btfss	(___awmod@divisor+1),7
  1984  0200  1FF3               	goto	u631
  1985  0201  2A03               	goto	u630
  1986  0202  2A04               u631:
  1987  0203                     	goto	l1060
  1988  0203  2A0A               u630:
  1989  0204                     	line	18
  1990                           	
  1991                           l1058:	
  1992  0204                     	comf	(___awmod@divisor),f
  1993  0204  09F2               	comf	(___awmod@divisor+1),f
  1994  0205  09F3               	incf	(___awmod@divisor),f
  1995  0206  0AF2               	skipnz
  1996  0207  1903               	incf	(___awmod@divisor+1),f
  1997  0208  0AF3               	goto	l1060
  1998  0209  2A0A               	
  1999                           l350:	
  2000  020A                     	line	19
  2001                           	
  2002                           l1060:	
  2003  020A                     	movf	((___awmod@divisor)),w
  2004  020A  0872               iorwf	((___awmod@divisor+1)),w
  2005  020B  0473               	btfsc	status,2
  2006  020C  1903               	goto	u641
  2007  020D  2A0F               	goto	u640
  2008  020E  2A10               u641:
  2009  020F                     	goto	l1078
  2010  020F  2A45               u640:
  2011  0210                     	line	20
  2012                           	
  2013                           l1062:	
  2014  0210                     	clrf	(___awmod@counter)
  2015  0210  01F7               	incf	(___awmod@counter),f
  2016  0211  0AF7               	line	21
  2017                           	goto	l1068
  2018  0212  2A1F               	
  2019                           l353:	
  2020  0213                     	line	22
  2021                           	
  2022                           l1064:	
  2023  0213                     	movlw	01h
  2024  0213  3001               	
  2025                           u655:
  2026  0214                     	clrc
  2027  0214  1003               	rlf	(___awmod@divisor),f
  2028  0215  0DF2               	rlf	(___awmod@divisor+1),f
  2029  0216  0DF3               	addlw	-1
  2030  0217  3EFF               	skipz
  2031  0218  1D03               	goto	u655
  2032  0219  2A14               	line	23
  2033                           	
  2034                           l1066:	
  2035  021A                     	movlw	low(01h)
  2036  021A  3001               	movwf	(??___awmod+0)+0
  2037  021B  00F6               	movf	(??___awmod+0)+0,w
  2038  021C  0876               	addwf	(___awmod@counter),f
  2039  021D  07F7               	goto	l1068
  2040  021E  2A1F               	line	24
  2041                           	
  2042                           l352:	
  2043  021F                     	line	21
  2044                           	
  2045                           l1068:	
  2046  021F                     	btfss	(___awmod@divisor+1),(15)&7
  2047  021F  1FF3               	goto	u661
  2048  0220  2A22               	goto	u660
  2049  0221  2A23               u661:
  2050  0222                     	goto	l1064
  2051  0222  2A13               u660:
  2052  0223                     	goto	l1070
  2053  0223  2A25               	
  2054                           l354:	
  2055  0224                     	goto	l1070
  2056  0224  2A25               	line	25
  2057                           	
  2058                           l355:	
  2059  0225                     	line	26
  2060                           	
  2061                           l1070:	
  2062  0225                     	movf	(___awmod@divisor+1),w
  2063  0225  0873               	subwf	(___awmod@dividend+1),w
  2064  0226  0275               	skipz
  2065  0227  1D03               	goto	u675
  2066  0228  2A2B               	movf	(___awmod@divisor),w
  2067  0229  0872               	subwf	(___awmod@dividend),w
  2068  022A  0274               u675:
  2069  022B                     	skipc
  2070  022B  1C03               	goto	u671
  2071  022C  2A2E               	goto	u670
  2072  022D  2A2F               u671:
  2073  022E                     	goto	l1074
  2074  022E  2A36               u670:
  2075  022F                     	line	27
  2076                           	
  2077                           l1072:	
  2078  022F                     	movf	(___awmod@divisor),w
  2079  022F  0872               	subwf	(___awmod@dividend),f
  2080  0230  02F4               	movf	(___awmod@divisor+1),w
  2081  0231  0873               	skipc
  2082  0232  1C03               	decf	(___awmod@dividend+1),f
  2083  0233  03F5               	subwf	(___awmod@dividend+1),f
  2084  0234  02F5               	goto	l1074
  2085  0235  2A36               	
  2086                           l356:	
  2087  0236                     	line	28
  2088                           	
  2089                           l1074:	
  2090  0236                     	movlw	01h
  2091  0236  3001               	
  2092                           u685:
  2093  0237                     	clrc
  2094  0237  1003               	rrf	(___awmod@divisor+1),f
  2095  0238  0CF3               	rrf	(___awmod@divisor),f
  2096  0239  0CF2               	addlw	-1
  2097  023A  3EFF               	skipz
  2098  023B  1D03               	goto	u685
  2099  023C  2A37               	line	29
  2100                           	
  2101                           l1076:	
  2102  023D                     	movlw	01h
  2103  023D  3001               	subwf	(___awmod@counter),f
  2104  023E  02F7               	btfss	status,2
  2105  023F  1D03               	goto	u691
  2106  0240  2A42               	goto	u690
  2107  0241  2A43               u691:
  2108  0242                     	goto	l1070
  2109  0242  2A25               u690:
  2110  0243                     	goto	l1078
  2111  0243  2A45               	
  2112                           l357:	
  2113  0244                     	goto	l1078
  2114  0244  2A45               	line	30
  2115                           	
  2116                           l351:	
  2117  0245                     	line	31
  2118                           	
  2119                           l1078:	
  2120  0245                     	movf	((___awmod@sign)),w
  2121  0245  0878               	btfsc	status,2
  2122  0246  1903               	goto	u701
  2123  0247  2A49               	goto	u700
  2124  0248  2A4A               u701:
  2125  0249                     	goto	l1082
  2126  0249  2A50               u700:
  2127  024A                     	line	32
  2128                           	
  2129                           l1080:	
  2130  024A                     	comf	(___awmod@dividend),f
  2131  024A  09F4               	comf	(___awmod@dividend+1),f
  2132  024B  09F5               	incf	(___awmod@dividend),f
  2133  024C  0AF4               	skipnz
  2134  024D  1903               	incf	(___awmod@dividend+1),f
  2135  024E  0AF5               	goto	l1082
  2136  024F  2A50               	
  2137                           l358:	
  2138  0250                     	line	33
  2139                           	
  2140                           l1082:	
  2141  0250                     	movf	(___awmod@dividend+1),w
  2142  0250  0875               	movwf	(?___awmod+1)
  2143  0251  00F3               	movf	(___awmod@dividend),w
  2144  0252  0874               	movwf	(?___awmod)
  2145  0253  00F2               	goto	l359
  2146  0254  2A55               	
  2147                           l1084:	
  2148  0255                     	line	34
  2149                           	
  2150                           l359:	
  2151  0255                     	return
  2152  0255  0008               	opt stack 0
  2153                           GLOBAL	__end_of___awmod
  2154                           	__end_of___awmod:
  2155  0256                     	signat	___awmod,8314
  2156                           	global	___awdiv
  2157                           
  2158 ;; *************** function ___awdiv *****************
  2159 ;; Defined at:
  2160 ;;		line 5 in file "C:\Program Files (x86)\Microchip\xc8\v2.00\pic\sources\c90\common\awdiv.c"
  2161 ;; Parameters:    Size  Location     Type
  2162 ;;  divisor         2    2[COMMON] int 
  2163 ;;  dividend        2    4[COMMON] int 
  2164 ;; Auto vars:     Size  Location     Type
  2165 ;;  quotient        2    2[BANK0 ] int 
  2166 ;;  sign            1    1[BANK0 ] unsigned char 
  2167 ;;  counter         1    0[BANK0 ] unsigned char 
  2168 ;; Return value:  Size  Location     Type
  2169 ;;                  2    2[COMMON] int 
  2170 ;; Registers used:
  2171 ;;		wreg, status,2, status,0
  2172 ;; Tracked objects:
  2173 ;;		On entry : 0/0
  2174 ;;		On exit  : 0/0
  2175 ;;		Unchanged: 0/0
  2176 ;; Data sizes:     COMMON   BANK0   BANK1   BANK3   BANK2
  2177 ;;      Params:         4       0       0       0       0
  2178 ;;      Locals:         0       4       0       0       0
  2179 ;;      Temps:          1       0       0       0       0
  2180 ;;      Totals:         5       4       0       0       0
  2181 ;;Total ram usage:        9 bytes
  2182 ;; Hardware stack levels used:    1
  2183 ;; Hardware stack levels required when called:    1
  2184 ;; This function calls:
  2185 ;;		Nothing
  2186 ;; This function is called by:
  2187 ;;		_dispLCD_num
  2188 ;; This function uses a non-reentrant model
  2189 ;;
  2190                           psect	text4,local,class=CODE,delta=2,merge=1,group=1
  2191                           	file	"C:\Program Files (x86)\Microchip\xc8\v2.00\pic\sources\c90\common\awdiv.c"
  2192                           	line	5
  2193                           global __ptext4
  2194                           __ptext4:	;psect for function ___awdiv
  2195  0180                     psect	text4
  2196                           	file	"C:\Program Files (x86)\Microchip\xc8\v2.00\pic\sources\c90\common\awdiv.c"
  2197                           	line	5
  2198                           	global	__size_of___awdiv
  2199                           	__size_of___awdiv	equ	__end_of___awdiv-___awdiv
  2200  0073                     	
  2201                           ___awdiv:	
  2202  0180                     ;incstack = 0
  2203                           	opt	stack 5
  2204                           ; Regs used in ___awdiv: [wreg+status,2+status,0]
  2205                           	line	13
  2206                           	
  2207                           l1184:	
  2208  0180                     	bcf	status, 5	;RP0=0, select bank0
  2209  0180  1283               	bcf	status, 6	;RP1=0, select bank0
  2210  0181  1303               	clrf	(___awdiv@sign)
  2211  0182  01A1               	line	14
  2212                           	
  2213                           l1186:	
  2214  0183                     	btfss	(___awdiv@divisor+1),7
  2215  0183  1FF3               	goto	u831
  2216  0184  2986               	goto	u830
  2217  0185  2987               u831:
  2218  0186                     	goto	l1192
  2219  0186  298F               u830:
  2220  0187                     	line	15
  2221                           	
  2222                           l1188:	
  2223  0187                     	comf	(___awdiv@divisor),f
  2224  0187  09F2               	comf	(___awdiv@divisor+1),f
  2225  0188  09F3               	incf	(___awdiv@divisor),f
  2226  0189  0AF2               	skipnz
  2227  018A  1903               	incf	(___awdiv@divisor+1),f
  2228  018B  0AF3               	line	16
  2229                           	
  2230                           l1190:	
  2231  018C                     	clrf	(___awdiv@sign)
  2232  018C  01A1               	incf	(___awdiv@sign),f
  2233  018D  0AA1               	goto	l1192
  2234  018E  298F               	line	17
  2235                           	
  2236                           l336:	
  2237  018F                     	line	18
  2238                           	
  2239                           l1192:	
  2240  018F                     	btfss	(___awdiv@dividend+1),7
  2241  018F  1FF5               	goto	u841
  2242  0190  2992               	goto	u840
  2243  0191  2993               u841:
  2244  0192                     	goto	l1198
  2245  0192  299D               u840:
  2246  0193                     	line	19
  2247                           	
  2248                           l1194:	
  2249  0193                     	comf	(___awdiv@dividend),f
  2250  0193  09F4               	comf	(___awdiv@dividend+1),f
  2251  0194  09F5               	incf	(___awdiv@dividend),f
  2252  0195  0AF4               	skipnz
  2253  0196  1903               	incf	(___awdiv@dividend+1),f
  2254  0197  0AF5               	line	20
  2255                           	
  2256                           l1196:	
  2257  0198                     	movlw	low(01h)
  2258  0198  3001               	movwf	(??___awdiv+0)+0
  2259  0199  00F6               	movf	(??___awdiv+0)+0,w
  2260  019A  0876               	xorwf	(___awdiv@sign),f
  2261  019B  06A1               	goto	l1198
  2262  019C  299D               	line	21
  2263                           	
  2264                           l337:	
  2265  019D                     	line	22
  2266                           	
  2267                           l1198:	
  2268  019D                     	clrf	(___awdiv@quotient)
  2269  019D  01A2               	clrf	(___awdiv@quotient+1)
  2270  019E  01A3               	line	23
  2271                           	
  2272                           l1200:	
  2273  019F                     	movf	((___awdiv@divisor)),w
  2274  019F  0872               iorwf	((___awdiv@divisor+1)),w
  2275  01A0  0473               	btfsc	status,2
  2276  01A1  1903               	goto	u851
  2277  01A2  29A4               	goto	u850
  2278  01A3  29A5               u851:
  2279  01A4                     	goto	l1220
  2280  01A4  29E2               u850:
  2281  01A5                     	line	24
  2282                           	
  2283                           l1202:	
  2284  01A5                     	clrf	(___awdiv@counter)
  2285  01A5  01A0               	incf	(___awdiv@counter),f
  2286  01A6  0AA0               	line	25
  2287                           	goto	l1208
  2288  01A7  29B4               	
  2289                           l340:	
  2290  01A8                     	line	26
  2291                           	
  2292                           l1204:	
  2293  01A8                     	movlw	01h
  2294  01A8  3001               	
  2295                           u865:
  2296  01A9                     	clrc
  2297  01A9  1003               	rlf	(___awdiv@divisor),f
  2298  01AA  0DF2               	rlf	(___awdiv@divisor+1),f
  2299  01AB  0DF3               	addlw	-1
  2300  01AC  3EFF               	skipz
  2301  01AD  1D03               	goto	u865
  2302  01AE  29A9               	line	27
  2303                           	
  2304                           l1206:	
  2305  01AF                     	movlw	low(01h)
  2306  01AF  3001               	movwf	(??___awdiv+0)+0
  2307  01B0  00F6               	movf	(??___awdiv+0)+0,w
  2308  01B1  0876               	addwf	(___awdiv@counter),f
  2309  01B2  07A0               	goto	l1208
  2310  01B3  29B4               	line	28
  2311                           	
  2312                           l339:	
  2313  01B4                     	line	25
  2314                           	
  2315                           l1208:	
  2316  01B4                     	btfss	(___awdiv@divisor+1),(15)&7
  2317  01B4  1FF3               	goto	u871
  2318  01B5  29B7               	goto	u870
  2319  01B6  29B8               u871:
  2320  01B7                     	goto	l1204
  2321  01B7  29A8               u870:
  2322  01B8                     	goto	l1210
  2323  01B8  29BA               	
  2324                           l341:	
  2325  01B9                     	goto	l1210
  2326  01B9  29BA               	line	29
  2327                           	
  2328                           l342:	
  2329  01BA                     	line	30
  2330                           	
  2331                           l1210:	
  2332  01BA                     	movlw	01h
  2333  01BA  3001               	
  2334                           u885:
  2335  01BB                     	clrc
  2336  01BB  1003               	rlf	(___awdiv@quotient),f
  2337  01BC  0DA2               	rlf	(___awdiv@quotient+1),f
  2338  01BD  0DA3               	addlw	-1
  2339  01BE  3EFF               	skipz
  2340  01BF  1D03               	goto	u885
  2341  01C0  29BB               	line	31
  2342                           	movf	(___awdiv@divisor+1),w
  2343  01C1  0873               	subwf	(___awdiv@dividend+1),w
  2344  01C2  0275               	skipz
  2345  01C3  1D03               	goto	u895
  2346  01C4  29C7               	movf	(___awdiv@divisor),w
  2347  01C5  0872               	subwf	(___awdiv@dividend),w
  2348  01C6  0274               u895:
  2349  01C7                     	skipc
  2350  01C7  1C03               	goto	u891
  2351  01C8  29CA               	goto	u890
  2352  01C9  29CB               u891:
  2353  01CA                     	goto	l1216
  2354  01CA  29D3               u890:
  2355  01CB                     	line	32
  2356                           	
  2357                           l1212:	
  2358  01CB                     	movf	(___awdiv@divisor),w
  2359  01CB  0872               	subwf	(___awdiv@dividend),f
  2360  01CC  02F4               	movf	(___awdiv@divisor+1),w
  2361  01CD  0873               	skipc
  2362  01CE  1C03               	decf	(___awdiv@dividend+1),f
  2363  01CF  03F5               	subwf	(___awdiv@dividend+1),f
  2364  01D0  02F5               	line	33
  2365                           	
  2366                           l1214:	
  2367  01D1                     	bsf	(___awdiv@quotient)+(0/8),(0)&7
  2368  01D1  1422               	goto	l1216
  2369  01D2  29D3               	line	34
  2370                           	
  2371                           l343:	
  2372  01D3                     	line	35
  2373                           	
  2374                           l1216:	
  2375  01D3                     	movlw	01h
  2376  01D3  3001               	
  2377                           u905:
  2378  01D4                     	clrc
  2379  01D4  1003               	rrf	(___awdiv@divisor+1),f
  2380  01D5  0CF3               	rrf	(___awdiv@divisor),f
  2381  01D6  0CF2               	addlw	-1
  2382  01D7  3EFF               	skipz
  2383  01D8  1D03               	goto	u905
  2384  01D9  29D4               	line	36
  2385                           	
  2386                           l1218:	
  2387  01DA                     	movlw	01h
  2388  01DA  3001               	subwf	(___awdiv@counter),f
  2389  01DB  02A0               	btfss	status,2
  2390  01DC  1D03               	goto	u911
  2391  01DD  29DF               	goto	u910
  2392  01DE  29E0               u911:
  2393  01DF                     	goto	l1210
  2394  01DF  29BA               u910:
  2395  01E0                     	goto	l1220
  2396  01E0  29E2               	
  2397                           l344:	
  2398  01E1                     	goto	l1220
  2399  01E1  29E2               	line	37
  2400                           	
  2401                           l338:	
  2402  01E2                     	line	38
  2403                           	
  2404                           l1220:	
  2405  01E2                     	movf	((___awdiv@sign)),w
  2406  01E2  0821               	btfsc	status,2
  2407  01E3  1903               	goto	u921
  2408  01E4  29E6               	goto	u920
  2409  01E5  29E7               u921:
  2410  01E6                     	goto	l1224
  2411  01E6  29ED               u920:
  2412  01E7                     	line	39
  2413                           	
  2414                           l1222:	
  2415  01E7                     	comf	(___awdiv@quotient),f
  2416  01E7  09A2               	comf	(___awdiv@quotient+1),f
  2417  01E8  09A3               	incf	(___awdiv@quotient),f
  2418  01E9  0AA2               	skipnz
  2419  01EA  1903               	incf	(___awdiv@quotient+1),f
  2420  01EB  0AA3               	goto	l1224
  2421  01EC  29ED               	
  2422                           l345:	
  2423  01ED                     	line	40
  2424                           	
  2425                           l1224:	
  2426  01ED                     	movf	(___awdiv@quotient+1),w
  2427  01ED  0823               	movwf	(?___awdiv+1)
  2428  01EE  00F3               	movf	(___awdiv@quotient),w
  2429  01EF  0822               	movwf	(?___awdiv)
  2430  01F0  00F2               	goto	l346
  2431  01F1  29F2               	
  2432                           l1226:	
  2433  01F2                     	line	41
  2434                           	
  2435                           l346:	
  2436  01F2                     	return
  2437  01F2  0008               	opt stack 0
  2438                           GLOBAL	__end_of___awdiv
  2439                           	__end_of___awdiv:
  2440  01F3                     	signat	___awdiv,8314
  2441                           	global	_dispLCD_init
  2442                           
  2443 ;; *************** function _dispLCD_init *****************
  2444 ;; Defined at:
  2445 ;;		line 133 in file "dispLCD4vias.c"
  2446 ;; Parameters:    Size  Location     Type
  2447 ;;		None
  2448 ;; Auto vars:     Size  Location     Type
  2449 ;;		None
  2450 ;; Return value:  Size  Location     Type
  2451 ;;                  1    wreg      void 
  2452 ;; Registers used:
  2453 ;;		wreg, status,2, status,0, pclath, cstack
  2454 ;; Tracked objects:
  2455 ;;		On entry : 0/0
  2456 ;;		On exit  : 0/0
  2457 ;;		Unchanged: 0/0
  2458 ;; Data sizes:     COMMON   BANK0   BANK1   BANK3   BANK2
  2459 ;;      Params:         0       0       0       0       0
  2460 ;;      Locals:         0       0       0       0       0
  2461 ;;      Temps:          0       0       0       0       0
  2462 ;;      Totals:         0       0       0       0       0
  2463 ;;Total ram usage:        0 bytes
  2464 ;; Hardware stack levels used:    1
  2465 ;; Hardware stack levels required when called:    2
  2466 ;; This function calls:
  2467 ;;		_delay
  2468 ;;		_dispLCD_instReg
  2469 ;; This function is called by:
  2470 ;;		_main
  2471 ;; This function uses a non-reentrant model
  2472 ;;
  2473                           psect	text5,local,class=CODE,delta=2,merge=1,group=0
  2474                           	file	"dispLCD4vias.c"
  2475                           	line	133
  2476                           global __ptext5
  2477                           __ptext5:	;psect for function _dispLCD_init
  2478  0256                     psect	text5
  2479                           	file	"dispLCD4vias.c"
  2480                           	line	133
  2481                           	global	__size_of_dispLCD_init
  2482                           	__size_of_dispLCD_init	equ	__end_of_dispLCD_init-_dispLCD_init
  2483  0041                     	
  2484                           _dispLCD_init:	
  2485  0256                     ;incstack = 0
  2486                           	opt	stack 5
  2487                           ; Regs used in _dispLCD_init: [wreg+status,2+status,0+pclath+cstack]
  2488                           	line	135
  2489                           	
  2490                           l1086:	
  2491  0256                     ;dispLCD4vias.c: 135:     delay(100);
  2492                           	movlw	064h
  2493  0256  3064               	movwf	(delay@t)
  2494  0257  00F2               	movlw	0
  2495  0258  3000               	movwf	((delay@t))+1
  2496  0259  00F3               	fcall	_delay
  2497  025A  120A  118A  236B  120A  118A  	line	136
  2498                           	
  2499                           l1088:	
  2500  025F                     ;dispLCD4vias.c: 136:     TRISDbits.TRISD0 = 0;
  2501                           	bsf	status, 5	;RP0=1, select bank1
  2502  025F  1683               	bcf	status, 6	;RP1=0, select bank1
  2503  0260  1303               	bcf	(136)^080h,0	;volatile
  2504  0261  1008               	line	137
  2505                           	
  2506                           l1090:	
  2507  0262                     ;dispLCD4vias.c: 137:     TRISDbits.TRISD1 = 0;
  2508                           	bcf	(136)^080h,1	;volatile
  2509  0262  1088               	line	138
  2510                           	
  2511                           l1092:	
  2512  0263                     ;dispLCD4vias.c: 138:     TRISDbits.TRISD2 = 0;
  2513                           	bcf	(136)^080h,2	;volatile
  2514  0263  1108               	line	139
  2515                           	
  2516                           l1094:	
  2517  0264                     ;dispLCD4vias.c: 139:     TRISDbits.TRISD3 = 0;
  2518                           	bcf	(136)^080h,3	;volatile
  2519  0264  1188               	line	140
  2520                           	
  2521                           l1096:	
  2522  0265                     ;dispLCD4vias.c: 140:     TRISDbits.TRISD4 = 0;
  2523                           	bcf	(136)^080h,4	;volatile
  2524  0265  1208               	line	141
  2525                           	
  2526                           l1098:	
  2527  0266                     ;dispLCD4vias.c: 141:     TRISDbits.TRISD5 = 0;
  2528                           	bcf	(136)^080h,5	;volatile
  2529  0266  1288               	line	142
  2530                           	
  2531                           l1100:	
  2532  0267                     ;dispLCD4vias.c: 142:     TRISDbits.TRISD6 = 1;
  2533                           	bsf	(136)^080h,6	;volatile
  2534  0267  1708               	line	143
  2535                           	
  2536                           l1102:	
  2537  0268                     ;dispLCD4vias.c: 143:     TRISDbits.TRISD7 = 1;
  2538                           	bsf	(136)^080h,7	;volatile
  2539  0268  1788               	line	144
  2540                           ;dispLCD4vias.c: 144:     delay(100);
  2541                           	movlw	064h
  2542  0269  3064               	movwf	(delay@t)
  2543  026A  00F2               	movlw	0
  2544  026B  3000               	movwf	((delay@t))+1
  2545  026C  00F3               	fcall	_delay
  2546  026D  120A  118A  236B  120A  118A  	line	145
  2547                           	
  2548                           l1104:	
  2549  0272                     ;dispLCD4vias.c: 145:     LCDbits.EN = 1;
  2550                           	bcf	status, 5	;RP0=0, select bank0
  2551  0272  1283               	bcf	status, 6	;RP1=0, select bank0
  2552  0273  1303               	bsf	(8),5	;volatile
  2553  0274  1688               	line	146
  2554                           ;dispLCD4vias.c: 146:     dispLCD_instReg( 0x20|0x00|0x08);
  2555                           	movlw	low(028h)
  2556  0275  3028               	fcall	_dispLCD_instReg
  2557  0276  120A  118A  2107  120A  118A  	line	147
  2558                           ;dispLCD4vias.c: 147:     dispLCD_instReg( 0x08|0x04|0x00|0x00 );
  2559                           	movlw	low(0Ch)
  2560  027B  300C               	fcall	_dispLCD_instReg
  2561  027C  120A  118A  2107  120A  118A  	line	148
  2562                           ;dispLCD4vias.c: 148:     dispLCD_instReg( 0x01 );
  2563                           	movlw	low(01h)
  2564  0281  3001               	fcall	_dispLCD_instReg
  2565  0282  120A  118A  2107  120A  118A  	line	149
  2566                           ;dispLCD4vias.c: 149:     dispLCD_instReg( 0x02 );
  2567                           	movlw	low(02h)
  2568  0287  3002               	fcall	_dispLCD_instReg
  2569  0288  120A  118A  2107  120A  118A  	line	150
  2570                           ;dispLCD4vias.c: 150:     delay(100);
  2571                           	movlw	064h
  2572  028D  3064               	movwf	(delay@t)
  2573  028E  00F2               	movlw	0
  2574  028F  3000               	movwf	((delay@t))+1
  2575  0290  00F3               	fcall	_delay
  2576  0291  120A  118A  236B  120A  118A  	line	151
  2577                           	
  2578                           l47:	
  2579  0296                     	return
  2580  0296  0008               	opt stack 0
  2581                           GLOBAL	__end_of_dispLCD_init
  2582                           	__end_of_dispLCD_init:
  2583  0297                     	signat	_dispLCD_init,89
  2584                           	global	_delay
  2585                           
  2586 ;; *************** function _delay *****************
  2587 ;; Defined at:
  2588 ;;		line 12 in file "delay.c"
  2589 ;; Parameters:    Size  Location     Type
  2590 ;;  t               2    2[COMMON] unsigned int 
  2591 ;; Auto vars:     Size  Location     Type
  2592 ;;		None
  2593 ;; Return value:  Size  Location     Type
  2594 ;;                  1    wreg      void 
  2595 ;; Registers used:
  2596 ;;		wreg, status,2, status,0
  2597 ;; Tracked objects:
  2598 ;;		On entry : 0/0
  2599 ;;		On exit  : 0/0
  2600 ;;		Unchanged: 0/0
  2601 ;; Data sizes:     COMMON   BANK0   BANK1   BANK3   BANK2
  2602 ;;      Params:         2       0       0       0       0
  2603 ;;      Locals:         0       0       0       0       0
  2604 ;;      Temps:          1       0       0       0       0
  2605 ;;      Totals:         3       0       0       0       0
  2606 ;;Total ram usage:        3 bytes
  2607 ;; Hardware stack levels used:    1
  2608 ;; Hardware stack levels required when called:    1
  2609 ;; This function calls:
  2610 ;;		Nothing
  2611 ;; This function is called by:
  2612 ;;		_dispLCD_init
  2613 ;; This function uses a non-reentrant model
  2614 ;;
  2615                           psect	text6,local,class=CODE,delta=2,merge=1,group=0
  2616                           	file	"delay.c"
  2617                           	line	12
  2618                           global __ptext6
  2619                           __ptext6:	;psect for function _delay
  2620  036B                     psect	text6
  2621                           	file	"delay.c"
  2622                           	line	12
  2623                           	global	__size_of_delay
  2624                           	__size_of_delay	equ	__end_of_delay-_delay
  2625  0017                     	
  2626                           _delay:	
  2627  036B                     ;incstack = 0
  2628                           	opt	stack 5
  2629                           ; Regs used in _delay: [wreg+status,2+status,0]
  2630                           	line	15
  2631                           	
  2632                           l998:	
  2633  036B                     ;delay.c: 12: void delay(unsigned int t );delay.c: 14: {;delay.c: 15:     while ( t )
  2634                           	goto	l1002
  2635  036B  2B7A               	
  2636                           l105:	
  2637  036C                     	line	17
  2638                           	
  2639                           l1000:	
  2640  036C                     ;delay.c: 16:     {;delay.c: 17:         _delay((unsigned long)((1)*(4000000/4000.0)));

  2641                           	opt asmopt_push
  2642                           opt asmopt_off
  2643                           	movlw	199
  2644  036C  30C7               movwf	((??_delay+0)+0),f
  2645  036D  00F4               	u1037:
  2646  036E                     	nop2
  2647  036E  2B6F               decfsz	(??_delay+0)+0,f
  2648  036F  0BF4               	goto	u1037
  2649  0370  2B6E               	nop2
  2650  0371  2B72               	nop2
  2651  0372  2B73               opt asmopt_pop
  2652                           
  2653                           	line	18
  2654                           ;delay.c: 18:         --t;
  2655                           	movlw	01h
  2656  0373  3001               	subwf	(delay@t),f
  2657  0374  02F2               	movlw	0
  2658  0375  3000               	skipc
  2659  0376  1C03               	decf	(delay@t+1),f
  2660  0377  03F3               	subwf	(delay@t+1),f
  2661  0378  02F3               	goto	l1002
  2662  0379  2B7A               	line	19
  2663                           ;delay.c: 19:     }
  2664                           	
  2665                           l104:	
  2666  037A                     	line	15
  2667                           	
  2668                           l1002:	
  2669  037A                     ;delay.c: 15:     while ( t )
  2670                           	movf	((delay@t)),w
  2671  037A  0872               iorwf	((delay@t+1)),w
  2672  037B  0473               	btfss	status,2
  2673  037C  1D03               	goto	u511
  2674  037D  2B7F               	goto	u510
  2675  037E  2B80               u511:
  2676  037F                     	goto	l1000
  2677  037F  2B6C               u510:
  2678  0380                     	goto	l107
  2679  0380  2B81               	
  2680                           l106:	
  2681  0381                     	line	20
  2682                           	
  2683                           l107:	
  2684  0381                     	return
  2685  0381  0008               	opt stack 0
  2686                           GLOBAL	__end_of_delay
  2687                           	__end_of_delay:
  2688  0382                     	signat	_delay,4217
  2689                           	global	_dispLCD
  2690                           
  2691 ;; *************** function _dispLCD *****************
  2692 ;; Defined at:
  2693 ;;		line 154 in file "dispLCD4vias.c"
  2694 ;; Parameters:    Size  Location     Type
  2695 ;;  lin             1    wreg     unsigned char 
  2696 ;;  col             1    8[COMMON] unsigned char 
  2697 ;;  str             1    9[COMMON] PTR const unsigned char 
  2698 ;;		 -> STR_1(17), 
  2699 ;; Auto vars:     Size  Location     Type
  2700 ;;  lin             1    2[BANK0 ] unsigned char 
  2701 ;;  pos             1    1[BANK0 ] unsigned char 
  2702 ;; Return value:  Size  Location     Type
  2703 ;;                  1    wreg      void 
  2704 ;; Registers used:
  2705 ;;		wreg, fsr0l, fsr0h, status,2, status,0, pclath, cstack
  2706 ;; Tracked objects:
  2707 ;;		On entry : 0/0
  2708 ;;		On exit  : 0/0
  2709 ;;		Unchanged: 0/0
  2710 ;; Data sizes:     COMMON   BANK0   BANK1   BANK3   BANK2
  2711 ;;      Params:         2       0       0       0       0
  2712 ;;      Locals:         0       2       0       0       0
  2713 ;;      Temps:          0       1       0       0       0
  2714 ;;      Totals:         2       3       0       0       0
  2715 ;;Total ram usage:        5 bytes
  2716 ;; Hardware stack levels used:    1
  2717 ;; Hardware stack levels required when called:    3
  2718 ;; This function calls:
  2719 ;;		_dispLCD_dataReg
  2720 ;;		_dispLCD_lincol
  2721 ;; This function is called by:
  2722 ;;		_main
  2723 ;; This function uses a non-reentrant model
  2724 ;;
  2725                           psect	text7,local,class=CODE,delta=2,merge=1,group=0
  2726                           	file	"dispLCD4vias.c"
  2727                           	line	154
  2728                           global __ptext7
  2729                           __ptext7:	;psect for function _dispLCD
  2730  0297                     psect	text7
  2731                           	file	"dispLCD4vias.c"
  2732                           	line	154
  2733                           	global	__size_of_dispLCD
  2734                           	__size_of_dispLCD	equ	__end_of_dispLCD-_dispLCD
  2735  0037                     	
  2736                           _dispLCD:	
  2737  0297                     ;incstack = 0
  2738                           	opt	stack 4
  2739                           ; Regs used in _dispLCD: [wreg-fsr0h+status,2+status,0+pclath+cstack]
  2740                           ;dispLCD@lin stored from wreg
  2741                           	bcf	status, 5	;RP0=0, select bank0
  2742  0297  1283               	bcf	status, 6	;RP1=0, select bank0
  2743  0298  1303               	movwf	(dispLCD@lin)
  2744  0299  00A2               	line	156
  2745                           	
  2746                           l1228:	
  2747  029A                     ;dispLCD4vias.c: 154: void dispLCD( unsigned char lin, unsigned char col, const char * s
                                 tr );dispLCD4vias.c: 155: {;dispLCD4vias.c: 156:     char pos = col;
  2748                           	movf	(dispLCD@col),w
  2749  029A  0878               	movwf	(??_dispLCD+0)+0
  2750  029B  00A0               	movf	(??_dispLCD+0)+0,w
  2751  029C  0820               	movwf	(dispLCD@pos)
  2752  029D  00A1               	line	157
  2753                           	
  2754                           l1230:	
  2755  029E                     ;dispLCD4vias.c: 157:     dispLCD_lincol( lin, col );
  2756                           	movf	(dispLCD@col),w
  2757  029E  0878               	movwf	(??_dispLCD+0)+0
  2758  029F  00A0               	movf	(??_dispLCD+0)+0,w
  2759  02A0  0820               	movwf	(dispLCD_lincol@col)
  2760  02A1  00F5               	movf	(dispLCD@lin),w
  2761  02A2  0822               	fcall	_dispLCD_lincol
  2762  02A3  120A  118A  2382  120A  118A  	line	159
  2763                           ;dispLCD4vias.c: 159:     while( *str )
  2764                           	goto	l1238
  2765  02A8  2AC0               	
  2766                           l51:	
  2767  02A9                     	line	161
  2768                           	
  2769                           l1232:	
  2770  02A9                     ;dispLCD4vias.c: 160:     {;dispLCD4vias.c: 161:         dispLCD_dataReg( *str );
  2771                           	movf	(dispLCD@str),w
  2772  02A9  0879               	movwf	fsr0
  2773  02AA  0084               	fcall	stringdir
  2774  02AB  120A  118A  2354  120A  118A  	fcall	_dispLCD_dataReg
  2775  02B0  120A  118A  22FF  120A  118A  	line	162
  2776                           	
  2777                           l1234:	
  2778  02B5                     ;dispLCD4vias.c: 162:         ++str;
  2779                           	movlw	low(01h)
  2780  02B5  3001               	bcf	status, 5	;RP0=0, select bank0
  2781  02B6  1283               	bcf	status, 6	;RP1=0, select bank0
  2782  02B7  1303               	movwf	(??_dispLCD+0)+0
  2783  02B8  00A0               	movf	(??_dispLCD+0)+0,w
  2784  02B9  0820               	addwf	(dispLCD@str),f
  2785  02BA  07F9               	line	163
  2786                           	
  2787                           l1236:	
  2788  02BB                     ;dispLCD4vias.c: 163:         ++pos;
  2789                           	movlw	low(01h)
  2790  02BB  3001               	movwf	(??_dispLCD+0)+0
  2791  02BC  00A0               	movf	(??_dispLCD+0)+0,w
  2792  02BD  0820               	addwf	(dispLCD@pos),f
  2793  02BE  07A1               	goto	l1238
  2794  02BF  2AC0               	line	164
  2795                           ;dispLCD4vias.c: 164:     }
  2796                           	
  2797                           l50:	
  2798  02C0                     	line	159
  2799                           	
  2800                           l1238:	
  2801  02C0                     ;dispLCD4vias.c: 159:     while( *str )
  2802                           	movf	(dispLCD@str),w
  2803  02C0  0879               	movwf	fsr0
  2804  02C1  0084               	fcall	stringdir
  2805  02C2  120A  118A  2354  120A  118A  	xorlw	0
  2806  02C7  3A00               	skipz
  2807  02C8  1D03               	goto	u931
  2808  02C9  2ACB               	goto	u930
  2809  02CA  2ACC               u931:
  2810  02CB                     	goto	l1232
  2811  02CB  2AA9               u930:
  2812  02CC                     	goto	l53
  2813  02CC  2ACD               	
  2814                           l52:	
  2815  02CD                     	line	165
  2816                           	
  2817                           l53:	
  2818  02CD                     	return
  2819  02CD  0008               	opt stack 0
  2820                           GLOBAL	__end_of_dispLCD
  2821                           	__end_of_dispLCD:
  2822  02CE                     	signat	_dispLCD,12409
  2823                           	global	_dispLCD_lincol
  2824                           
  2825 ;; *************** function _dispLCD_lincol *****************
  2826 ;; Defined at:
  2827 ;;		line 127 in file "dispLCD4vias.c"
  2828 ;; Parameters:    Size  Location     Type
  2829 ;;  lin             1    wreg     unsigned char 
  2830 ;;  col             1    5[COMMON] unsigned char 
  2831 ;; Auto vars:     Size  Location     Type
  2832 ;;  lin             1    7[COMMON] unsigned char 
  2833 ;; Return value:  Size  Location     Type
  2834 ;;                  1    wreg      void 
  2835 ;; Registers used:
  2836 ;;		wreg, status,2, status,0, pclath, cstack
  2837 ;; Tracked objects:
  2838 ;;		On entry : 0/0
  2839 ;;		On exit  : 0/0
  2840 ;;		Unchanged: 0/0
  2841 ;; Data sizes:     COMMON   BANK0   BANK1   BANK3   BANK2
  2842 ;;      Params:         1       0       0       0       0
  2843 ;;      Locals:         1       0       0       0       0
  2844 ;;      Temps:          1       0       0       0       0
  2845 ;;      Totals:         3       0       0       0       0
  2846 ;;Total ram usage:        3 bytes
  2847 ;; Hardware stack levels used:    1
  2848 ;; Hardware stack levels required when called:    2
  2849 ;; This function calls:
  2850 ;;		_dispLCD_instReg
  2851 ;; This function is called by:
  2852 ;;		_dispLCD
  2853 ;;		_dispLCD_num
  2854 ;; This function uses a non-reentrant model
  2855 ;;
  2856                           psect	text8,local,class=CODE,delta=2,merge=1,group=0
  2857                           	line	127
  2858                           global __ptext8
  2859                           __ptext8:	;psect for function _dispLCD_lincol
  2860  0382                     psect	text8
  2861                           	file	"dispLCD4vias.c"
  2862                           	line	127
  2863                           	global	__size_of_dispLCD_lincol
  2864                           	__size_of_dispLCD_lincol	equ	__end_of_dispLCD_lincol-_dispLCD_lincol
  2865  0013                     	
  2866                           _dispLCD_lincol:	
  2867  0382                     ;incstack = 0
  2868                           	opt	stack 4
  2869                           ; Regs used in _dispLCD_lincol: [wreg+status,2+status,0+pclath+cstack]
  2870                           ;dispLCD_lincol@lin stored from wreg
  2871                           	movwf	(dispLCD_lincol@lin)
  2872  0382  00F7               	line	129
  2873                           	
  2874                           l996:	
  2875  0383                     ;dispLCD4vias.c: 127: void dispLCD_lincol( unsigned char lin, unsigned char col);dispLCD
                                 4vias.c: 128: {;dispLCD4vias.c: 129:     dispLCD_instReg( (0x80+((0x40 * lin) + (col + 0
                                 x00) & 0x7F)) );
  2876                           	movf	(dispLCD_lincol@lin),w
  2877  0383  0877               	movwf	(??_dispLCD_lincol+0)+0
  2878  0384  00F6               	movlw	06h
  2879  0385  3006               u505:
  2880  0386                     	clrc
  2881  0386  1003               	rlf	(??_dispLCD_lincol+0)+0,f
  2882  0387  0DF6               	addlw	-1
  2883  0388  3EFF               	skipz
  2884  0389  1D03               	goto	u505
  2885  038A  2B86               	movf	(dispLCD_lincol@col),w
  2886  038B  0875               	addwf	0+(??_dispLCD_lincol+0)+0,w
  2887  038C  0776               	andlw	07Fh
  2888  038D  397F               	addlw	080h
  2889  038E  3E80               	fcall	_dispLCD_instReg
  2890  038F  120A  118A  2107  120A  118A  	line	130
  2891                           	
  2892                           l44:	
  2893  0394                     	return
  2894  0394  0008               	opt stack 0
  2895                           GLOBAL	__end_of_dispLCD_lincol
  2896                           	__end_of_dispLCD_lincol:
  2897  0395                     	signat	_dispLCD_lincol,8313
  2898                           	global	_dispLCD_instReg
  2899                           
  2900 ;; *************** function _dispLCD_instReg *****************
  2901 ;; Defined at:
  2902 ;;		line 78 in file "dispLCD4vias.c"
  2903 ;; Parameters:    Size  Location     Type
  2904 ;;  i               1    wreg     unsigned char 
  2905 ;; Auto vars:     Size  Location     Type
  2906 ;;  i               1    4[COMMON] unsigned char 
  2907 ;; Return value:  Size  Location     Type
  2908 ;;                  1    wreg      void 
  2909 ;; Registers used:
  2910 ;;		wreg, status,2, status,0
  2911 ;; Tracked objects:
  2912 ;;		On entry : 0/0
  2913 ;;		On exit  : 0/0
  2914 ;;		Unchanged: 0/0
  2915 ;; Data sizes:     COMMON   BANK0   BANK1   BANK3   BANK2
  2916 ;;      Params:         0       0       0       0       0
  2917 ;;      Locals:         1       0       0       0       0
  2918 ;;      Temps:          2       0       0       0       0
  2919 ;;      Totals:         3       0       0       0       0
  2920 ;;Total ram usage:        3 bytes
  2921 ;; Hardware stack levels used:    1
  2922 ;; Hardware stack levels required when called:    1
  2923 ;; This function calls:
  2924 ;;		Nothing
  2925 ;; This function is called by:
  2926 ;;		_dispLCD_lincol
  2927 ;;		_dispLCD_init
  2928 ;;		_dispLCD_clr
  2929 ;; This function uses a non-reentrant model
  2930 ;;
  2931                           psect	text9,local,class=CODE,delta=2,merge=1,group=0
  2932                           	line	78
  2933                           global __ptext9
  2934                           __ptext9:	;psect for function _dispLCD_instReg
  2935  0107                     psect	text9
  2936                           	file	"dispLCD4vias.c"
  2937                           	line	78
  2938                           	global	__size_of_dispLCD_instReg
  2939                           	__size_of_dispLCD_instReg	equ	__end_of_dispLCD_instReg-_dispLCD_instReg
  2940  0079                     	
  2941                           _dispLCD_instReg:	
  2942  0107                     ;incstack = 0
  2943                           	opt	stack 4
  2944                           ; Regs used in _dispLCD_instReg: [wreg+status,2+status,0]
  2945                           ;dispLCD_instReg@i stored from wreg
  2946                           	movwf	(dispLCD_instReg@i)
  2947  0107  00F4               	line	80
  2948                           	
  2949                           l936:	
  2950  0108                     ;dispLCD4vias.c: 78: void dispLCD_instReg( unsigned char i );dispLCD4vias.c: 79: {;dispL
                                 CD4vias.c: 80:     LCDbits.RS = 0;
  2951                           	bcf	status, 5	;RP0=0, select bank0
  2952  0108  1283               	bcf	status, 6	;RP1=0, select bank0
  2953  0109  1303               	bcf	(8),4	;volatile
  2954  010A  1208               	line	81
  2955                           	
  2956                           l938:	
  2957  010B                     ;dispLCD4vias.c: 81:     LCDbits.BUS = (i>>4);
  2958                           	movf	(dispLCD_instReg@i),w
  2959  010B  0874               	movwf	(??_dispLCD_instReg+0)+0
  2960  010C  00F2               	movlw	04h
  2961  010D  3004               u425:
  2962  010E                     	clrc
  2963  010E  1003               	rrf	(??_dispLCD_instReg+0)+0,f
  2964  010F  0CF2               	addlw	-1
  2965  0110  3EFF               	skipz
  2966  0111  1D03               	goto	u425
  2967  0112  290E               	movf	(8),w	;volatile
  2968  0113  0808               	xorwf	0+(??_dispLCD_instReg+0)+0,w
  2969  0114  0672               	andlw	not ((1<<4)-1)
  2970  0115  39F0               	xorwf	0+(??_dispLCD_instReg+0)+0,w
  2971  0116  0672               	movwf	(8)	;volatile
  2972  0117  0088               	line	83
  2973                           	
  2974                           l940:	
  2975  0118                     ;dispLCD4vias.c: 83:     LCDbits.EN = 0;
  2976                           	bcf	(8),5	;volatile
  2977  0118  1288               	line	84
  2978                           ;dispLCD4vias.c: 84:     if( i == 0x01 || i == 0x02 )
  2979                           		decf	((dispLCD_instReg@i)),w
  2980  0119  0374               	btfsc	status,2
  2981  011A  1903               	goto	u431
  2982  011B  291D               	goto	u430
  2983  011C  291E               u431:
  2984  011D                     	goto	l944
  2985  011D  2925               u430:
  2986  011E                     	
  2987                           l942:	
  2988  011E                     		movlw	2
  2989  011E  3002               	xorwf	((dispLCD_instReg@i)),w
  2990  011F  0674               	btfss	status,2
  2991  0120  1D03               	goto	u441
  2992  0121  2923               	goto	u440
  2993  0122  2924               u441:
  2994  0123                     	goto	l946
  2995  0123  292F               u440:
  2996  0124                     	goto	l944
  2997  0124  2925               	
  2998                           l31:	
  2999  0125                     	line	85
  3000                           	
  3001                           l944:	
  3002  0125                     ;dispLCD4vias.c: 85:         _delay((unsigned long)((2)*(4000000/4000.0)));
  3003                           	opt asmopt_push
  3004                           opt asmopt_off
  3005                           movlw	3
  3006  0125  3003               movwf	((??_dispLCD_instReg+0)+0+1),f
  3007  0126  00F3               	movlw	151
  3008  0127  3097               movwf	((??_dispLCD_instReg+0)+0),f
  3009  0128  00F2               	u1047:
  3010  0129                     decfsz	((??_dispLCD_instReg+0)+0),f
  3011  0129  0BF2               	goto	u1047
  3012  012A  2929               	decfsz	((??_dispLCD_instReg+0)+0+1),f
  3013  012B  0BF3               	goto	u1047
  3014  012C  2929               	nop2
  3015  012D  292E               opt asmopt_pop
  3016                           
  3017                           	goto	l948
  3018  012E  2934               	line	86
  3019                           ;dispLCD4vias.c: 86:     else
  3020                           	
  3021                           l29:	
  3022  012F                     	line	87
  3023                           	
  3024                           l946:	
  3025  012F                     ;dispLCD4vias.c: 87:         _delay((unsigned long)((40)*(4000000/4000000.0)));
  3026                           	opt asmopt_push
  3027                           opt asmopt_off
  3028                           	movlw	13
  3029  012F  300D               movwf	((??_dispLCD_instReg+0)+0),f
  3030  0130  00F2               	u1057:
  3031  0131                     decfsz	(??_dispLCD_instReg+0)+0,f
  3032  0131  0BF2               	goto	u1057
  3033  0132  2931               opt asmopt_pop
  3034                           
  3035                           	goto	l948
  3036  0133  2934               	
  3037                           l32:	
  3038  0134                     	line	88
  3039                           	
  3040                           l948:	
  3041  0134                     ;dispLCD4vias.c: 88:     LCDbits.EN = 1;
  3042                           	bcf	status, 5	;RP0=0, select bank0
  3043  0134  1283               	bcf	status, 6	;RP1=0, select bank0
  3044  0135  1303               	bsf	(8),5	;volatile
  3045  0136  1688               	line	91
  3046                           	
  3047                           l950:	
  3048  0137                     ;dispLCD4vias.c: 91:     if( (i & 0xF0) == (0x20 | 0x00) )
  3049                           	movlw	low(0F0h)
  3050  0137  30F0               	andwf	(dispLCD_instReg@i),w
  3051  0138  0574               	movwf	(??_dispLCD_instReg+0)+0
  3052  0139  00F2               		movlw	32
  3053  013A  3020               	xorwf	((??_dispLCD_instReg+0)+0),w
  3054  013B  0672               	btfss	status,2
  3055  013C  1D03               	goto	u451
  3056  013D  293F               	goto	u450
  3057  013E  2940               u451:
  3058  013F                     	goto	l962
  3059  013F  2957               u450:
  3060  0140                     	line	93
  3061                           	
  3062                           l952:	
  3063  0140                     ;dispLCD4vias.c: 92:     {;dispLCD4vias.c: 93:         LCDbits.RS = 0;
  3064                           	bcf	(8),4	;volatile
  3065  0140  1208               	line	94
  3066                           	
  3067                           l954:	
  3068  0141                     ;dispLCD4vias.c: 94:         LCDbits.BUS = i>>4;
  3069                           	movf	(dispLCD_instReg@i),w
  3070  0141  0874               	movwf	(??_dispLCD_instReg+0)+0
  3071  0142  00F2               	movlw	04h
  3072  0143  3004               u465:
  3073  0144                     	clrc
  3074  0144  1003               	rrf	(??_dispLCD_instReg+0)+0,f
  3075  0145  0CF2               	addlw	-1
  3076  0146  3EFF               	skipz
  3077  0147  1D03               	goto	u465
  3078  0148  2944               	movf	(8),w	;volatile
  3079  0149  0808               	xorwf	0+(??_dispLCD_instReg+0)+0,w
  3080  014A  0672               	andlw	not ((1<<4)-1)
  3081  014B  39F0               	xorwf	0+(??_dispLCD_instReg+0)+0,w
  3082  014C  0672               	movwf	(8)	;volatile
  3083  014D  0088               	line	95
  3084                           	
  3085                           l956:	
  3086  014E                     ;dispLCD4vias.c: 95:         LCDbits.EN = 0;
  3087                           	bcf	(8),5	;volatile
  3088  014E  1288               	line	96
  3089                           	
  3090                           l958:	
  3091  014F                     ;dispLCD4vias.c: 96:         _delay((unsigned long)((40)*(4000000/4000000.0)));
  3092                           	opt asmopt_push
  3093                           opt asmopt_off
  3094                           	movlw	13
  3095  014F  300D               movwf	((??_dispLCD_instReg+0)+0),f
  3096  0150  00F2               	u1067:
  3097  0151                     decfsz	(??_dispLCD_instReg+0)+0,f
  3098  0151  0BF2               	goto	u1067
  3099  0152  2951               opt asmopt_pop
  3100                           
  3101                           	line	97
  3102                           	
  3103                           l960:	
  3104  0153                     ;dispLCD4vias.c: 97:         LCDbits.EN = 1;
  3105                           	bcf	status, 5	;RP0=0, select bank0
  3106  0153  1283               	bcf	status, 6	;RP1=0, select bank0
  3107  0154  1303               	bsf	(8),5	;volatile
  3108  0155  1688               	goto	l962
  3109  0156  2957               	line	98
  3110                           ;dispLCD4vias.c: 98:     }
  3111                           	
  3112                           l33:	
  3113  0157                     	line	100
  3114                           	
  3115                           l962:	
  3116  0157                     ;dispLCD4vias.c: 100:     LCDbits.RS = 0;
  3117                           	bcf	(8),4	;volatile
  3118  0157  1208               	line	101
  3119                           	
  3120                           l964:	
  3121  0158                     ;dispLCD4vias.c: 101:     LCDbits.BUS = i & 0x0F;
  3122                           	movlw	low(0Fh)
  3123  0158  300F               	andwf	(dispLCD_instReg@i),w
  3124  0159  0574               	movwf	(??_dispLCD_instReg+0)+0
  3125  015A  00F2               	movf	(8),w	;volatile
  3126  015B  0808               	xorwf	0+(??_dispLCD_instReg+0)+0,w
  3127  015C  0672               	andlw	not ((1<<4)-1)
  3128  015D  39F0               	xorwf	0+(??_dispLCD_instReg+0)+0,w
  3129  015E  0672               	movwf	(8)	;volatile
  3130  015F  0088               	line	102
  3131                           	
  3132                           l966:	
  3133  0160                     ;dispLCD4vias.c: 102:     LCDbits.EN = 0;
  3134                           	bcf	(8),5	;volatile
  3135  0160  1288               	line	103
  3136                           	
  3137                           l968:	
  3138  0161                     ;dispLCD4vias.c: 103:     if( i == 0x01 || i == 0x02 )
  3139                           		decf	((dispLCD_instReg@i)),w
  3140  0161  0374               	btfsc	status,2
  3141  0162  1903               	goto	u471
  3142  0163  2965               	goto	u470
  3143  0164  2966               u471:
  3144  0165                     	goto	l972
  3145  0165  296D               u470:
  3146  0166                     	
  3147                           l970:	
  3148  0166                     		movlw	2
  3149  0166  3002               	xorwf	((dispLCD_instReg@i)),w
  3150  0167  0674               	btfss	status,2
  3151  0168  1D03               	goto	u481
  3152  0169  296B               	goto	u480
  3153  016A  296C               u481:
  3154  016B                     	goto	l974
  3155  016B  2977               u480:
  3156  016C                     	goto	l972
  3157  016C  296D               	
  3158                           l36:	
  3159  016D                     	line	104
  3160                           	
  3161                           l972:	
  3162  016D                     ;dispLCD4vias.c: 104:         _delay((unsigned long)((2)*(4000000/4000.0)));
  3163                           	opt asmopt_push
  3164                           opt asmopt_off
  3165                           movlw	3
  3166  016D  3003               movwf	((??_dispLCD_instReg+0)+0+1),f
  3167  016E  00F3               	movlw	151
  3168  016F  3097               movwf	((??_dispLCD_instReg+0)+0),f
  3169  0170  00F2               	u1077:
  3170  0171                     decfsz	((??_dispLCD_instReg+0)+0),f
  3171  0171  0BF2               	goto	u1077
  3172  0172  2971               	decfsz	((??_dispLCD_instReg+0)+0+1),f
  3173  0173  0BF3               	goto	u1077
  3174  0174  2971               	nop2
  3175  0175  2976               opt asmopt_pop
  3176                           
  3177                           	goto	l976
  3178  0176  297C               	line	105
  3179                           ;dispLCD4vias.c: 105:     else
  3180                           	
  3181                           l34:	
  3182  0177                     	line	106
  3183                           	
  3184                           l974:	
  3185  0177                     ;dispLCD4vias.c: 106:         _delay((unsigned long)((40)*(4000000/4000000.0)));
  3186                           	opt asmopt_push
  3187                           opt asmopt_off
  3188                           	movlw	13
  3189  0177  300D               movwf	((??_dispLCD_instReg+0)+0),f
  3190  0178  00F2               	u1087:
  3191  0179                     decfsz	(??_dispLCD_instReg+0)+0,f
  3192  0179  0BF2               	goto	u1087
  3193  017A  2979               opt asmopt_pop
  3194                           
  3195                           	goto	l976
  3196  017B  297C               	
  3197                           l37:	
  3198  017C                     	line	107
  3199                           	
  3200                           l976:	
  3201  017C                     ;dispLCD4vias.c: 107:     LCDbits.EN = 1;
  3202                           	bcf	status, 5	;RP0=0, select bank0
  3203  017C  1283               	bcf	status, 6	;RP1=0, select bank0
  3204  017D  1303               	bsf	(8),5	;volatile
  3205  017E  1688               	line	108
  3206                           	
  3207                           l38:	
  3208  017F                     	return
  3209  017F  0008               	opt stack 0
  3210                           GLOBAL	__end_of_dispLCD_instReg
  3211                           	__end_of_dispLCD_instReg:
  3212  0180                     	signat	_dispLCD_instReg,4217
  3213                           	global	_dispLCD_dataReg
  3214                           
  3215 ;; *************** function _dispLCD_dataReg *****************
  3216 ;; Defined at:
  3217 ;;		line 111 in file "dispLCD4vias.c"
  3218 ;; Parameters:    Size  Location     Type
  3219 ;;  d               1    wreg     unsigned char 
  3220 ;; Auto vars:     Size  Location     Type
  3221 ;;  d               1    3[COMMON] unsigned char 
  3222 ;; Return value:  Size  Location     Type
  3223 ;;                  1    wreg      void 
  3224 ;; Registers used:
  3225 ;;		wreg, status,2, status,0
  3226 ;; Tracked objects:
  3227 ;;		On entry : 0/0
  3228 ;;		On exit  : 0/0
  3229 ;;		Unchanged: 0/0
  3230 ;; Data sizes:     COMMON   BANK0   BANK1   BANK3   BANK2
  3231 ;;      Params:         0       0       0       0       0
  3232 ;;      Locals:         1       0       0       0       0
  3233 ;;      Temps:          1       0       0       0       0
  3234 ;;      Totals:         2       0       0       0       0
  3235 ;;Total ram usage:        2 bytes
  3236 ;; Hardware stack levels used:    1
  3237 ;; Hardware stack levels required when called:    1
  3238 ;; This function calls:
  3239 ;;		Nothing
  3240 ;; This function is called by:
  3241 ;;		_dispLCD
  3242 ;;		_dispLCD_num
  3243 ;; This function uses a non-reentrant model
  3244 ;;
  3245                           psect	text10,local,class=CODE,delta=2,merge=1,group=0
  3246                           	line	111
  3247                           global __ptext10
  3248                           __ptext10:	;psect for function _dispLCD_dataReg
  3249  02FF                     psect	text10
  3250                           	file	"dispLCD4vias.c"
  3251                           	line	111
  3252                           	global	__size_of_dispLCD_dataReg
  3253                           	__size_of_dispLCD_dataReg	equ	__end_of_dispLCD_dataReg-_dispLCD_dataReg
  3254  002B                     	
  3255                           _dispLCD_dataReg:	
  3256  02FF                     ;incstack = 0
  3257                           	opt	stack 5
  3258                           ; Regs used in _dispLCD_dataReg: [wreg+status,2+status,0]
  3259                           ;dispLCD_dataReg@d stored from wreg
  3260                           	movwf	(dispLCD_dataReg@d)
  3261  02FF  00F3               	line	113
  3262                           	
  3263                           l978:	
  3264  0300                     ;dispLCD4vias.c: 111: void dispLCD_dataReg( unsigned char d );dispLCD4vias.c: 112: {;dis
                                 pLCD4vias.c: 113:     LCDbits.RS = 1;
  3265                           	bcf	status, 5	;RP0=0, select bank0
  3266  0300  1283               	bcf	status, 6	;RP1=0, select bank0
  3267  0301  1303               	bsf	(8),4	;volatile
  3268  0302  1608               	line	114
  3269                           	
  3270                           l980:	
  3271  0303                     ;dispLCD4vias.c: 114:     LCDbits.BUS = d >> 4;
  3272                           	movf	(dispLCD_dataReg@d),w
  3273  0303  0873               	movwf	(??_dispLCD_dataReg+0)+0
  3274  0304  00F2               	movlw	04h
  3275  0305  3004               u495:
  3276  0306                     	clrc
  3277  0306  1003               	rrf	(??_dispLCD_dataReg+0)+0,f
  3278  0307  0CF2               	addlw	-1
  3279  0308  3EFF               	skipz
  3280  0309  1D03               	goto	u495
  3281  030A  2B06               	movf	(8),w	;volatile
  3282  030B  0808               	xorwf	0+(??_dispLCD_dataReg+0)+0,w
  3283  030C  0672               	andlw	not ((1<<4)-1)
  3284  030D  39F0               	xorwf	0+(??_dispLCD_dataReg+0)+0,w
  3285  030E  0672               	movwf	(8)	;volatile
  3286  030F  0088               	line	115
  3287                           	
  3288                           l982:	
  3289  0310                     ;dispLCD4vias.c: 115:     LCDbits.EN = 0;
  3290                           	bcf	(8),5	;volatile
  3291  0310  1288               	line	116
  3292                           	
  3293                           l984:	
  3294  0311                     ;dispLCD4vias.c: 116:     _delay((unsigned long)((40)*(4000000/4000000.0)));
  3295                           	opt asmopt_push
  3296                           opt asmopt_off
  3297                           	movlw	13
  3298  0311  300D               movwf	((??_dispLCD_dataReg+0)+0),f
  3299  0312  00F2               	u1097:
  3300  0313                     decfsz	(??_dispLCD_dataReg+0)+0,f
  3301  0313  0BF2               	goto	u1097
  3302  0314  2B13               opt asmopt_pop
  3303                           
  3304                           	line	117
  3305                           	
  3306                           l986:	
  3307  0315                     ;dispLCD4vias.c: 117:     LCDbits.EN = 1;
  3308                           	bcf	status, 5	;RP0=0, select bank0
  3309  0315  1283               	bcf	status, 6	;RP1=0, select bank0
  3310  0316  1303               	bsf	(8),5	;volatile
  3311  0317  1688               	line	119
  3312                           	
  3313                           l988:	
  3314  0318                     ;dispLCD4vias.c: 119:     LCDbits.RS = 1;
  3315                           	bsf	(8),4	;volatile
  3316  0318  1608               	line	120
  3317                           	
  3318                           l990:	
  3319  0319                     ;dispLCD4vias.c: 120:     LCDbits.BUS = d & 0x0F;
  3320                           	movlw	low(0Fh)
  3321  0319  300F               	andwf	(dispLCD_dataReg@d),w
  3322  031A  0573               	movwf	(??_dispLCD_dataReg+0)+0
  3323  031B  00F2               	movf	(8),w	;volatile
  3324  031C  0808               	xorwf	0+(??_dispLCD_dataReg+0)+0,w
  3325  031D  0672               	andlw	not ((1<<4)-1)
  3326  031E  39F0               	xorwf	0+(??_dispLCD_dataReg+0)+0,w
  3327  031F  0672               	movwf	(8)	;volatile
  3328  0320  0088               	line	121
  3329                           	
  3330                           l992:	
  3331  0321                     ;dispLCD4vias.c: 121:     LCDbits.EN = 0;
  3332                           	bcf	(8),5	;volatile
  3333  0321  1288               	line	122
  3334                           ;dispLCD4vias.c: 122:     _delay((unsigned long)((40)*(4000000/4000000.0)));
  3335                           	opt asmopt_push
  3336                           opt asmopt_off
  3337                           	movlw	13
  3338  0322  300D               movwf	((??_dispLCD_dataReg+0)+0),f
  3339  0323  00F2               	u1107:
  3340  0324                     decfsz	(??_dispLCD_dataReg+0)+0,f
  3341  0324  0BF2               	goto	u1107
  3342  0325  2B24               opt asmopt_pop
  3343                           
  3344                           	line	123
  3345                           	
  3346                           l994:	
  3347  0326                     ;dispLCD4vias.c: 123:     LCDbits.EN = 1;
  3348                           	bcf	status, 5	;RP0=0, select bank0
  3349  0326  1283               	bcf	status, 6	;RP1=0, select bank0
  3350  0327  1303               	bsf	(8),5	;volatile
  3351  0328  1688               	line	124
  3352                           	
  3353                           l41:	
  3354  0329                     	return
  3355  0329  0008               	opt stack 0
  3356                           GLOBAL	__end_of_dispLCD_dataReg
  3357                           	__end_of_dispLCD_dataReg:
  3358  032A                     	signat	_dispLCD_dataReg,4217
  3359                           	global	_isr
  3360                           
  3361 ;; *************** function _isr *****************
  3362 ;; Defined at:
  3363 ;;		line 29 in file "timer.c"
  3364 ;; Parameters:    Size  Location     Type
  3365 ;;		None
  3366 ;; Auto vars:     Size  Location     Type
  3367 ;;		None
  3368 ;; Return value:  Size  Location     Type
  3369 ;;                  1    wreg      void 
  3370 ;; Registers used:
  3371 ;;		wreg, status,2, status,0
  3372 ;; Tracked objects:
  3373 ;;		On entry : 0/0
  3374 ;;		On exit  : 0/0
  3375 ;;		Unchanged: 0/0
  3376 ;; Data sizes:     COMMON   BANK0   BANK1   BANK3   BANK2
  3377 ;;      Params:         0       0       0       0       0
  3378 ;;      Locals:         0       0       0       0       0
  3379 ;;      Temps:          2       0       0       0       0
  3380 ;;      Totals:         2       0       0       0       0
  3381 ;;Total ram usage:        2 bytes
  3382 ;; Hardware stack levels used:    1
  3383 ;; This function calls:
  3384 ;;		Nothing
  3385 ;; This function is called by:
  3386 ;;		Interrupt level 1
  3387 ;; This function uses a non-reentrant model
  3388 ;;
  3389                           psect	text11,local,class=CODE,delta=2,merge=1,group=0
  3390                           	file	"timer.c"
  3391                           	line	29
  3392                           global __ptext11
  3393                           __ptext11:	;psect for function _isr
  3394  032A                     psect	text11
  3395                           	file	"timer.c"
  3396                           	line	29
  3397                           	global	__size_of_isr
  3398                           	__size_of_isr	equ	__end_of_isr-_isr
  3399  002A                     	
  3400                           _isr:	
  3401  032A                     ;incstack = 0
  3402                           	opt	stack 4
  3403                           ; Regs used in _isr: [wreg+status,2+status,0]
  3404                           psect	intentry,class=CODE,delta=2
  3405                           global __pintentry
  3406                           __pintentry:
  3407  0004                     global interrupt_function
  3408                           interrupt_function:
  3409  0004                     	global saved_w
  3410                           	saved_w	set	btemp+0
  3411  007E                     	movwf	saved_w
  3412  0004  00FE               	swapf	status,w
  3413  0005  0E03               	movwf	(??_isr+0)
  3414  0006  00F0               	movf	pclath,w
  3415  0007  080A               	movwf	(??_isr+1)
  3416  0008  00F1               	ljmp	_isr
  3417  0009  120A  118A  2B2A   psect	text11
  3418                           	line	31
  3419                           	
  3420                           i1l1172:	
  3421  032A                     ;timer.c: 31:     INTCONbits.GIE = 0;
  3422                           	bcf	(11),7	;volatile
  3423  032A  138B               	line	32
  3424                           ;timer.c: 32:     if( INTCONbits.T0IF )
  3425                           	btfss	(11),2	;volatile
  3426  032B  1D0B               	goto	u81_21
  3427  032C  2B2E               	goto	u81_20
  3428  032D  2B2F               u81_21:
  3429  032E                     	goto	i1l1182
  3430  032E  2B4C               u81_20:
  3431  032F                     	line	34
  3432                           	
  3433                           i1l1174:	
  3434  032F                     ;timer.c: 33:     {;timer.c: 34:         INTCONbits.T0IF = 0;
  3435                           	bcf	(11),2	;volatile
  3436  032F  110B               	line	35
  3437                           	
  3438                           i1l1176:	
  3439  0330                     ;timer.c: 35:         TMR0 = 256-100;
  3440                           	movlw	low(09Ch)
  3441  0330  309C               	bcf	status, 5	;RP0=0, select bank0
  3442  0331  1283               	bcf	status, 6	;RP1=0, select bank0
  3443  0332  1303               	movwf	(1)	;volatile
  3444  0333  0081               	line	36
  3445                           ;timer.c: 36:         --t1seg;
  3446                           	movlw	0FFh
  3447  0334  30FF               	addwf	(_t1seg),f
  3448  0335  07FA               	skipnc
  3449  0336  1803               	incf	(_t1seg+1),f
  3450  0337  0AFB               	movlw	0FFh
  3451  0338  30FF               	addwf	(_t1seg+1),f
  3452  0339  07FB               	line	37
  3453                           	
  3454                           i1l1178:	
  3455  033A                     ;timer.c: 37:         if( !t1seg )
  3456                           	movf	((_t1seg)),w
  3457  033A  087A               iorwf	((_t1seg+1)),w
  3458  033B  047B               	btfss	status,2
  3459  033C  1D03               	goto	u82_21
  3460  033D  2B3F               	goto	u82_20
  3461  033E  2B40               u82_21:
  3462  033F                     	goto	i1l1182
  3463  033F  2B4C               u82_20:
  3464  0340                     	line	39
  3465                           	
  3466                           i1l1180:	
  3467  0340                     ;timer.c: 38:         {;timer.c: 39:             contador++;
  3468                           	movlw	01h
  3469  0340  3001               	addwf	(_contador),f
  3470  0341  07B2               	skipnc
  3471  0342  1803               	incf	(_contador+1),f
  3472  0343  0AB3               	movlw	0
  3473  0344  3000               	addwf	(_contador+1),f
  3474  0345  07B3               	line	40
  3475                           ;timer.c: 40:             t1seg = 10000;
  3476                           	movlw	010h
  3477  0346  3010               	movwf	(_t1seg)
  3478  0347  00FA               	movlw	027h
  3479  0348  3027               	movwf	((_t1seg))+1
  3480  0349  00FB               	goto	i1l1182
  3481  034A  2B4C               	line	41
  3482                           ;timer.c: 41:         }
  3483                           	
  3484                           i1l98:	
  3485  034B                     	goto	i1l1182
  3486  034B  2B4C               	line	42
  3487                           ;timer.c: 42:     }
  3488                           	
  3489                           i1l97:	
  3490  034C                     	line	43
  3491                           	
  3492                           i1l1182:	
  3493  034C                     ;timer.c: 43:     INTCONbits.GIE = 1;
  3494                           	bsf	(11),7	;volatile
  3495  034C  178B               	line	44
  3496                           	
  3497                           i1l99:	
  3498  034D                     	movf	(??_isr+1),w
  3499  034D  0871               	movwf	pclath
  3500  034E  008A               	swapf	(??_isr+0)^0FFFFFF80h,w
  3501  034F  0E70               	movwf	status
  3502  0350  0083               	swapf	saved_w,f
  3503  0351  0EFE               	swapf	saved_w,w
  3504  0352  0E7E               	retfie
  3505  0353  0009               	opt stack 0
  3506                           GLOBAL	__end_of_isr
  3507                           	__end_of_isr:
  3508  0354                     	signat	_isr,89
  3509                           global	___latbits
  3510                           ___latbits	equ	2
  3511  0002                     	global	btemp
  3512                           	btemp set 07Eh
  3513  007E                     
  3514                           	DABS	1,126,2	;btemp
  3515                           	global	wtemp0
  3516                           	wtemp0 set btemp+0
  3517  007E                     	end


Data Sizes:
    Strings     17
    Constant    0
    Data        0
    BSS         4
    Persistent  0
    Stack       0

Auto Spaces:
    Space          Size  Autos    Used
    COMMON           14     10      12
    BANK0            80     18      20
    BANK1            80      0       0
    BANK3            96      0       0
    BANK2            96      0       0

Pointer List with Targets:

    dispLCD@str	PTR const unsigned char  size(1) Largest target is 17
		 -> STR_1(CODE[17]), 


Critical Paths under _main in COMMON

    _main->_dispLCD
    _dispLCD_num->___awmod
    _dispLCD_init->_delay
    _dispLCD_init->_dispLCD_instReg
    _dispLCD->_dispLCD_lincol
    _dispLCD_lincol->_dispLCD_instReg

Critical Paths under _isr in COMMON

    None.

Critical Paths under _main in BANK0

    _main->_dispLCD_num
    _dispLCD_num->___awdiv

Critical Paths under _isr in BANK0

    None.

Critical Paths under _main in BANK1

    None.

Critical Paths under _isr in BANK1

    None.

Critical Paths under _main in BANK3

    None.

Critical Paths under _isr in BANK3

    None.

Critical Paths under _main in BANK2

    None.

Critical Paths under _isr in BANK2

    None.

Call Graph Tables:

 ---------------------------------------------------------------------------------
 (Depth) Function   	        Calls       Base Space   Used Autos Params    Refs
 ---------------------------------------------------------------------------------
 (0) _main                                                 2     2      0    4133
                                             16 BANK0      2     2      0
                            _dispLCD
                       _dispLCD_init
                        _dispLCD_num
                        _timers_init
 ---------------------------------------------------------------------------------
 (1) _timers_init                                          0     0      0       0
 ---------------------------------------------------------------------------------
 (1) _dispLCD_num                                         12     8      4    2946
                                              4 BANK0     12     8      4
                            ___awdiv
                            ___awmod
                    _dispLCD_dataReg
                     _dispLCD_lincol
 ---------------------------------------------------------------------------------
 (2) ___awmod                                              7     3      4     448
                                              2 COMMON     7     3      4
 ---------------------------------------------------------------------------------
 (2) ___awdiv                                              9     5      4    1165
                                              2 COMMON     5     1      4
                                              0 BANK0      4     4      0
 ---------------------------------------------------------------------------------
 (1) _dispLCD_init                                         0     0      0     427
                              _delay
                    _dispLCD_instReg
 ---------------------------------------------------------------------------------
 (2) _delay                                                3     1      2     251
                                              2 COMMON     3     1      2
 ---------------------------------------------------------------------------------
 (1) _dispLCD                                              5     3      2     760
                                              8 COMMON     2     0      2
                                              0 BANK0      3     3      0
                    _dispLCD_dataReg
                     _dispLCD_lincol
 ---------------------------------------------------------------------------------
 (2) _dispLCD_lincol                                       3     2      1     372
                                              5 COMMON     3     2      1
                    _dispLCD_instReg
 ---------------------------------------------------------------------------------
 (3) _dispLCD_instReg                                      3     3      0     176
                                              2 COMMON     3     3      0
 ---------------------------------------------------------------------------------
 (2) _dispLCD_dataReg                                      2     2      0      44
                                              2 COMMON     2     2      0
 ---------------------------------------------------------------------------------
 Estimated maximum stack depth 3
 ---------------------------------------------------------------------------------
 (Depth) Function   	        Calls       Base Space   Used Autos Params    Refs
 ---------------------------------------------------------------------------------
 (4) _isr                                                  2     2      0       0
                                              0 COMMON     2     2      0
 ---------------------------------------------------------------------------------
 Estimated maximum stack depth 4
 ---------------------------------------------------------------------------------

 Call Graph Graphs:

 _main (ROOT)
   _dispLCD
     _dispLCD_dataReg
     _dispLCD_lincol
       _dispLCD_instReg
   _dispLCD_init
     _delay
     _dispLCD_instReg
   _dispLCD_num
     ___awdiv
     ___awmod
     _dispLCD_dataReg
     _dispLCD_lincol
       _dispLCD_instReg
   _timers_init

 _isr (ROOT)

 Address spaces:
Name               Size   Autos  Total    Cost      Usage
BITCOMMON            E      0       0       0        0.0%
EEDATA             100      0       0       0        0.0%
NULL                 0      0       0       0        0.0%
CODE                 0      0       0       0        0.0%
COMMON               E      A       C       1       85.7%
BITSFR0              0      0       0       1        0.0%
SFR0                 0      0       0       1        0.0%
BITSFR1              0      0       0       2        0.0%
SFR1                 0      0       0       2        0.0%
STACK                0      0       0       2        0.0%
ABS                  0      0      20       3        0.0%
BITBANK0            50      0       0       4        0.0%
BITSFR3              0      0       0       4        0.0%
SFR3                 0      0       0       4        0.0%
BANK0               50     12      14       5       25.0%
BITSFR2              0      0       0       5        0.0%
SFR2                 0      0       0       5        0.0%
BITBANK1            50      0       0       6        0.0%
BANK1               50      0       0       7        0.0%
BITBANK3            60      0       0       8        0.0%
BANK3               60      0       0       9        0.0%
BITBANK2            60      0       0      10        0.0%
BANK2               60      0       0      11        0.0%
DATA                 0      0      20      12        0.0%


Microchip Technology PIC Macro Assembler V2.00 build -1524193055 
Symbol Table                                                                                   Wed Jun 16 16:30:43 2021

                       pc 0002               __CFG_CP$OFF 0000                        l31 0125  
                      l15 02E6                        l32 0134                        l16 02FB  
                      l41 0329                        l33 0157                        l17 02FC  
                      l34 0177                        l50 02C0                        l18 02FC  
                      l51 02A9                        l36 016D                        l44 0394  
                      l52 02CD                        l60 0060                        l37 017C  
                      l29 012F                        l53 02CD                        l61 0082  
                      l38 017F                        l70 0106                        l62 008E  
                      l47 0296                        l63 0083                        l56 0030  
                      l65 00AB                        l57 0074                        l66 00AC  
                      l58 0045                        l67 00BA                        l59 005F  
                      l68 00BA                        l92 03A5                        l69 0106  
            ___awdiv@sign 0021   __end_of_dispLCD_dataReg 032A                        fsr 0004  
                     l104 037A                       l105 036C                       l106 0381  
                     l107 0381                       l340 01A8                       l341 01B9  
                     l342 01BA                       l350 020A                       l343 01D3  
                     l351 0245                       l344 01E1                       l336 018F  
                     l352 021F                       l345 01ED                       l337 019D  
                     l353 0213                       l346 01F2                       l338 01E2  
                     l354 0224                       l339 01B4                       l355 0225  
                     l356 0236                       l357 0244                       l349 0200  
                     l358 0250                       l359 0255                       l940 0118  
                     l950 0137                       l942 011E                       l960 0153  
                     l952 0140                       l944 0125                       l936 0108  
                     l970 0166                       l954 0141                       l962 0157  
                     l946 012F                       l938 010B                       l980 0303  
                     l972 016D                       l964 0158                       l956 014E  
                     l948 0134                       l990 0319                       l982 0310  
                     l974 0177                       l966 0160                       l958 014F  
                     l992 0321                       l984 0311                       l976 017C  
                     l968 0161                       l994 0326                       l986 0315  
                     l978 0300                       l988 0318                       l996 0383  
                     l998 036B                       u430 011E                       u510 0380  
                     u431 011D                       u511 037F                       u440 0124  
                     u441 0123                       u425 010E                       u505 0386  
                     u450 0140              __CFG_CPD$OFF 0000                       u451 013F  
                     u700 024A                       u620 01F8                       u701 0249  
                     u621 01F7                       u470 0166                       u630 0204  
                     u471 0165                       u631 0203                       u480 016C  
                     u640 0210                       u481 016B                       u465 0144  
                     u641 020F                       u660 0223                       u661 0222  
                     u910 01E0                       u830 0187                       u670 022F  
                     u495 0306                       u911 01DF                       u831 0186  
                     u671 022E                       u655 0214                       u920 01E7  
                     u840 0193                       u921 01E6                       u905 01D4  
                     u841 0192                       u930 02CC                       u850 01A5  
                     u690 0243                       u931 02CB                       u851 01A4  
                     u691 0242                       u675 022B                       u940 0021  
                     u685 0237                       u941 001F                       u870 01B8  
                     u950 0022                       u871 01B7                       u960 002A  
                     u865 01A9                       u961 0029                       u890 01CB  
                     u970 005A                       u891 01CA                       u971 0059  
                     u980 0081                       u885 01BB                       u981 0080  
                     u990 00A2                       u895 01C7                       u991 00A1  
                     u985 007D                       u995 009E                       _isr 032A  
                     fsr0 0004   __end_of_dispLCD_instReg 0180              ___awmod@sign 0078  
            __CFG_LVP$OFF 0000                      l1000 036C                      l1002 037A  
                    l1100 0267                      l1102 0268                      l1110 039D  
                    l1104 0272                      l1200 019F                      l1112 039E  
                    l1210 01BA                      l1202 01A5                      l1050 01F4  
                    l1114 039F                      l1106 0395                      l1212 01CB  
                    l1204 01A8                      l1220 01E2                      l1060 020A  
                    l1052 01F8                      l1116 03A1                      l1108 0399  
                    l1230 029E                      l1222 01E7                      l1214 01D1  
                    l1206 01AF                      l1070 0225                      l1062 0210  
                    l1054 01FD                      l1232 02A9                      l1224 01ED  
                    l1216 01D3                      l1208 01B4                      l1080 024A  
                    l1072 022F                      l1064 0213                      l1056 0200  
                    l1048 01F3                      l1240 001C                      l1234 02B5  
                    l1090 0262                      l1226 01F2                      l1218 01DA  
                    l1082 0250                      l1074 0236                      l1066 021A  
                    l1058 0204                      l1250 0040                      l1242 0025  
                    l1236 02BB                      l1228 029A                      l1092 0263  
                    l1084 0255                      l1076 023D                      l1068 021F  
                    l1260 0083                      l1252 0045                      l1244 002A  
                    l1238 02C0                      l1094 0264                      l1086 0256  
                    l1190 018C                      l1078 0245                      l1270 00B3  
                    l1262 0089                      l1254 005A                      l1246 0030  
                    l1096 0265                      l1088 025F                      l1192 018F  
                    l1184 0180                      l1272 00F8                      l1256 0060  
                    l1264 008E                      l1248 003A                      l1098 0266  
                    l1194 0193                      l1186 0183                      l1266 00A2  
                    l1258 0074                      l1274 02CE                      l1196 0198  
                    l1188 0187                      l1268 00AC                      l1276 02D8  
                    l1198 019D                      l1278 02E6                      ?_isr 0070  
                    STR_1 035A                      u1000 00AA                      u1001 00A9  
                    u1010 00B3                      u1011 00B2                      u1020 0105  
                    u1021 0104                      u1025 0101                      u1107 0324  
                    u1037 036E                      u1047 0129                      u1057 0131  
                    u1067 0151                      u1077 0171                      u1087 0179  
                    u1097 0313                      i1l97 034C                      i1l98 034B  
                    i1l99 034D                      _TMR0 0001              __CFG_WRT$OFF 0000  
                    _main 02CE                      btemp 007E                      start 000C  
           __CFG_IESO$OFF 0000                     ??_isr 0070                     ?_main 0070  
         __end_of___awdiv 01F3             __CFG_WDTE$OFF 0000           __end_of___awmod 0256  
         ___awdiv@divisor 0072           ___awdiv@counter 0020                     u81_20 032F  
                   u81_21 032E                     u82_20 0340                     u82_21 033F  
         __end_of_dispLCD 02CE            __CFG_FCMEN$OFF 0000                     _t1seg 007A  
                   _delay 036B            __CFG_BOREN$OFF 0000                     pclath 000A  
                   status 0003                     wtemp0 007E      __end_of_dispLCD_init 0297  
          __CFG_MCLRE$OFF 0000           __initialization 000F              __end_of_main 02FF  
        ?_dispLCD_dataReg 0070                    ??_main 0030      __size_of_dispLCD_num 00EE  
        ?_dispLCD_instReg 0070                    ?_delay 0072          ___awdiv@dividend 0074  
                  i1l1180 0340                    i1l1172 032A                    i1l1174 032F  
                  i1l1182 034C                    i1l1176 0330                    i1l1178 033A  
          __CFG_PWRTE$OFF 0000                 ??___awdiv 0076                 ??___awmod 0076  
                  delay@t 0072          ___awdiv@quotient 0022           ___awmod@divisor 0072  
               ??_dispLCD 0020           ___awmod@counter 0077                    saved_w 007E  
            ?_timers_init 0070   __end_of__initialization 0015   __size_of_dispLCD_lincol 0013  
          __pcstackCOMMON 0070             __end_of_delay 0382            _OPTION_REGbits 0081  
                 ??_delay 0074                __pbssBANK0 0032     __size_of_dispLCD_init 0041  
              __pmaintext 02CE                __pintentry 0004                   _LCDbits 0008  
            _dispLCD_init 0256                __stringtab 0354                   ___awdiv 0180  
                 ___awmod 01F3                   _dispLCD 0297                   __ptext0 0000  
                 __ptext1 0395                   __ptext2 0019                   __ptext3 01F3  
                 __ptext4 0180                   __ptext5 0256                   __ptext6 036B  
                 __ptext7 0297                   __ptext8 0382                   __ptext9 0107  
            __size_of_isr 002A          ___awmod@dividend 0074      end_of_initialization 0015  
          dispLCD_num@col 0024            dispLCD_num@div 002E      __size_of_timers_init 0011  
          dispLCD_num@lin 002B            dispLCD_num@tam 0027            dispLCD_num@num 0025  
          _dispLCD_lincol 0382                dispLCD@col 0078                dispLCD@lin 0022  
              dispLCD@pos 0021                dispLCD@str 0079             ??_dispLCD_num 0028  
               _TRISDbits 0088  __size_of_dispLCD_dataReg 002B    __end_of_dispLCD_lincol 0395  
__size_of_dispLCD_instReg 0079       start_initialization 000F       __end_of_dispLCD_num 0107  
             __end_of_isr 0354           ?_dispLCD_lincol 0075  __CFG_FOSC$INTRC_NOCLKOUT 0000  
       dispLCD_lincol@col 0075         dispLCD_lincol@lin 0077               __pbssCOMMON 007A  
               ___latbits 0002             __pcstackBANK0 0020         ??_dispLCD_dataReg 0072  
       ??_dispLCD_instReg 0072                  ?___awdiv 0072                  ?___awmod 0072  
             _dispLCD_num 0019                  ?_dispLCD 0078                 __pstrings 0354  
          __size_of_delay 0017         interrupt_function 0004          dispLCD_dataReg@d 0073  
             __stringbase 0359             ??_timers_init 0072          dispLCD_instReg@i 0074  
        __size_of___awdiv 0073          __size_of___awmod 0063          dispLCD_num@sinal 002D  
      __end_of__stringtab 035A          __size_of_dispLCD 0037          ??_dispLCD_lincol 0076  
                __ptext10 02FF                  __ptext11 032A         __CFG_BOR4V$BOR40V 0000  
                _contador 0032             __size_of_main 0031       __end_of_timers_init 03A6  
              _INTCONbits 000B             ?_dispLCD_init 0070           _dispLCD_dataReg 02FF  
         dispLCD_num@size 002C           _dispLCD_instReg 0107                  intlevel1 0000  
               stringcode 0354              ?_dispLCD_num 0024            ??_dispLCD_init 0075  
                stringdir 0354                  stringtab 0354               _timers_init 0395  
